(lp0
(S'cppflags'
p1
ccopy_reg
_reconstructor
p2
(cino.utils
SpaceList
p3
c__builtin__
list
p4
(lp5
S'-mmcu=atmega328p'
p6
aS'-DF_CPU=16000000L'
p7
aS'-DARDUINO=105'
p8
aS'-I/Applications/Arduino.app/Contents/Resources/Java/hardware/arduino/cores/arduino'
p9
aS'-ffunction-sections'
p10
aS'-fdata-sections'
p11
aS'-g'
p12
aS'-Os'
p13
aS'-w'
p14
aS'-I/Applications/Arduino.app/Contents/Resources/Java/hardware/arduino/variants/standard'
p15
aS'-I/Applications/Arduino.app/Contents/Resources/Java/hardware/arduino/cores/arduino'
p16
aS'-I/Applications/Arduino.app/Contents/Resources/Java/hardware/arduino/cores/arduino/avr-libc'
p17
atp18
Rp19
tp20
a(S'cxx'
p21
S'/Applications/Arduino.app/Contents/Resources/Java/hardware/tools/avr/bin/avr-g++'
p22
tp23
a(S'arduino_libraries_dir'
p24
S'/Applications/Arduino.app/Contents/Resources/Java/libraries'
p25
tp26
a(S'avrdude'
p27
S'/Applications/Arduino.app/Contents/Resources/Java/hardware/tools/avr/bin/avrdude'
p28
tp29
a(S'ar'
p30
S'/Applications/Arduino.app/Contents/Resources/Java/hardware/tools/avr/bin/avr-ar'
p31
tp32
a(S'names'
p33
(dp34
S'cpp'
p35
S'%s.cpp'
p36
sS'obj'
p37
S'%s.o'
p38
sS'lib'
p39
S'lib%s.a'
p40
sS'deps'
p41
S'%s.d'
p42
stp43
a(S'ldflags'
p44
g2
(g3
g4
(lp45
g6
aS'-Wl,-Os'
p46
aS'-Wl,--gc-sections'
p47
atp48
Rp49
tp50
a(S'arduino_lib_version'
p51
g2
(cino.environment
Version
p52
c__builtin__
tuple
p53
(I1
I0
I5
tp54
tp55
Rp56
tp57
a(S'objcopy'
p58
S'/Applications/Arduino.app/Contents/Resources/Java/hardware/tools/avr/bin/avr-objcopy'
p59
tp60
a(S'board_models'
p61
cino.environment
BoardModels
p62
((lp63
(lp64
S'uno'
p65
a(dp66
S'build'
p67
(dp68
S'core'
p69
S'arduino'
p70
sS'mcu'
p71
S'atmega328p'
p72
sS'f_cpu'
p73
S'16000000L'
p74
sS'variant'
p75
S'standard'
p76
ssS'bootloader'
p77
(dp78
S'extended_fuses'
p79
S'0x05'
p80
sS'high_fuses'
p81
S'0xde'
p82
sS'low_fuses'
p83
S'0xff'
p84
sS'lock_bits'
p85
S'0x0F'
p86
sS'file'
p87
S'optiboot_atmega328.hex'
p88
sS'path'
p89
S'optiboot'
p90
sS'unlock_bits'
p91
S'0x3F'
p92
ssS'upload'
p93
(dp94
S'protocol'
p95
S'arduino'
p96
sS'maximum_size'
p97
S'32256'
p98
sS'speed'
p99
S'115200'
p100
ssS'name'
p101
S'Arduino Uno'
p102
saa(lp103
S'atmega328'
p104
a(dp105
S'build'
p106
(dp107
S'core'
p108
S'arduino'
p109
sS'mcu'
p110
S'atmega328p'
p111
sS'f_cpu'
p112
S'16000000L'
p113
sS'variant'
p114
S'standard'
p115
ssS'bootloader'
p116
(dp117
S'extended_fuses'
p118
S'0x05'
p119
sS'high_fuses'
p120
S'0xDA'
p121
sS'low_fuses'
p122
S'0xFF'
p123
sS'lock_bits'
p124
S'0x0F'
p125
sS'file'
p126
S'ATmegaBOOT_168_atmega328.hex'
p127
sS'path'
p128
S'atmega'
p129
sS'unlock_bits'
p130
S'0x3F'
p131
ssS'upload'
p132
(dp133
S'protocol'
p134
S'arduino'
p135
sS'maximum_size'
p136
S'30720'
p137
sS'speed'
p138
S'57600'
p139
ssS'name'
p140
S'Arduino Duemilanove w/ ATmega328'
p141
saa(lp142
S'diecimila'
p143
a(dp144
S'build'
p145
(dp146
S'core'
p147
S'arduino'
p148
sS'mcu'
p149
S'atmega168'
p150
sS'f_cpu'
p151
S'16000000L'
p152
sS'variant'
p153
S'standard'
p154
ssS'bootloader'
p155
(dp156
S'extended_fuses'
p157
S'0x00'
p158
sS'high_fuses'
p159
S'0xdd'
p160
sS'low_fuses'
p161
S'0xff'
p162
sS'lock_bits'
p163
S'0x0F'
p164
sS'file'
p165
S'ATmegaBOOT_168_diecimila.hex'
p166
sS'path'
p167
S'atmega'
p168
sS'unlock_bits'
p169
S'0x3F'
p170
ssS'upload'
p171
(dp172
S'protocol'
p173
S'arduino'
p174
sS'maximum_size'
p175
S'14336'
p176
sS'speed'
p177
S'19200'
p178
ssS'name'
p179
S'Arduino Diecimila or Duemilanove w/ ATmega168'
p180
saa(lp181
S'nano328'
p182
a(dp183
S'build'
p184
(dp185
S'core'
p186
S'arduino'
p187
sS'mcu'
p188
S'atmega328p'
p189
sS'f_cpu'
p190
S'16000000L'
p191
sS'variant'
p192
S'eightanaloginputs'
p193
ssS'bootloader'
p194
(dp195
S'extended_fuses'
p196
S'0x05'
p197
sS'high_fuses'
p198
S'0xDA'
p199
sS'low_fuses'
p200
S'0xFF'
p201
sS'lock_bits'
p202
S'0x0F'
p203
sS'file'
p204
S'ATmegaBOOT_168_atmega328.hex'
p205
sS'path'
p206
S'atmega'
p207
sS'unlock_bits'
p208
S'0x3F'
p209
ssS'upload'
p210
(dp211
S'protocol'
p212
S'arduino'
p213
sS'maximum_size'
p214
S'30720'
p215
sS'speed'
p216
S'57600'
p217
ssS'name'
p218
S'Arduino Nano w/ ATmega328'
p219
saa(lp220
S'nano'
p221
a(dp222
S'build'
p223
(dp224
S'core'
p225
S'arduino'
p226
sS'mcu'
p227
S'atmega168'
p228
sS'f_cpu'
p229
S'16000000L'
p230
sS'variant'
p231
S'eightanaloginputs'
p232
ssS'bootloader'
p233
(dp234
S'extended_fuses'
p235
S'0x00'
p236
sS'high_fuses'
p237
S'0xdd'
p238
sS'low_fuses'
p239
S'0xff'
p240
sS'lock_bits'
p241
S'0x0F'
p242
sS'file'
p243
S'ATmegaBOOT_168_diecimila.hex'
p244
sS'path'
p245
S'atmega'
p246
sS'unlock_bits'
p247
S'0x3F'
p248
ssS'upload'
p249
(dp250
S'protocol'
p251
S'arduino'
p252
sS'maximum_size'
p253
S'14336'
p254
sS'speed'
p255
S'19200'
p256
ssS'name'
p257
S'Arduino Nano w/ ATmega168'
p258
saa(lp259
S'mega2560'
p260
a(dp261
S'build'
p262
(dp263
S'core'
p264
S'arduino'
p265
sS'mcu'
p266
S'atmega2560'
p267
sS'f_cpu'
p268
S'16000000L'
p269
sS'variant'
p270
S'mega'
p271
ssS'bootloader'
p272
(dp273
S'extended_fuses'
p274
S'0xFD'
p275
sS'high_fuses'
p276
S'0xD8'
p277
sS'low_fuses'
p278
S'0xFF'
p279
sS'lock_bits'
p280
S'0x0F'
p281
sS'file'
p282
S'stk500boot_v2_mega2560.hex'
p283
sS'path'
p284
S'stk500v2'
p285
sS'unlock_bits'
p286
S'0x3F'
p287
ssS'upload'
p288
(dp289
S'protocol'
p290
S'wiring'
p291
sS'maximum_size'
p292
S'258048'
p293
sS'speed'
p294
S'115200'
p295
ssS'name'
p296
S'Arduino Mega 2560 or Mega ADK'
p297
saa(lp298
S'mega'
p299
a(dp300
S'build'
p301
(dp302
S'core'
p303
S'arduino'
p304
sS'mcu'
p305
S'atmega1280'
p306
sS'f_cpu'
p307
S'16000000L'
p308
sS'variant'
p309
S'mega'
p310
ssS'bootloader'
p311
(dp312
S'extended_fuses'
p313
S'0xF5'
p314
sS'high_fuses'
p315
S'0xDA'
p316
sS'low_fuses'
p317
S'0xFF'
p318
sS'lock_bits'
p319
S'0x0F'
p320
sS'file'
p321
S'ATmegaBOOT_168_atmega1280.hex'
p322
sS'path'
p323
S'atmega'
p324
sS'unlock_bits'
p325
S'0x3F'
p326
ssS'upload'
p327
(dp328
S'protocol'
p329
S'arduino'
p330
sS'maximum_size'
p331
S'126976'
p332
sS'speed'
p333
S'57600'
p334
ssS'name'
p335
S'Arduino Mega (ATmega1280)'
p336
saa(lp337
S'leonardo'
p338
a(dp339
S'build'
p340
(dp341
S'core'
p342
S'arduino'
p343
sS'f_cpu'
p344
S'16000000L'
p345
sS'vid'
p346
S'0x2341'
p347
sS'pid'
p348
S'0x8036'
p349
sS'variant'
p350
S'leonardo'
p351
sS'mcu'
p352
S'atmega32u4'
p353
ssS'bootloader'
p354
(dp355
S'extended_fuses'
p356
S'0xcb'
p357
sS'high_fuses'
p358
S'0xd8'
p359
sS'low_fuses'
p360
S'0xff'
p361
sS'lock_bits'
p362
S'0x2F'
p363
sS'file'
p364
S'Caterina-Leonardo.hex'
p365
sS'path'
p366
S'caterina'
p367
sS'unlock_bits'
p368
S'0x3F'
p369
ssS'upload'
p370
(dp371
S'protocol'
p372
S'avr109'
p373
sS'maximum_size'
p374
S'28672'
p375
sS'speed'
p376
S'57600'
p377
sS'disable_flushing'
p378
S'true'
p379
ssS'name'
p380
S'Arduino Leonardo'
p381
saa(lp382
S'esplora'
p383
a(dp384
S'build'
p385
(dp386
S'core'
p387
S'arduino'
p388
sS'f_cpu'
p389
S'16000000L'
p390
sS'vid'
p391
S'0x2341'
p392
sS'pid'
p393
S'0x803C'
p394
sS'variant'
p395
S'leonardo'
p396
sS'mcu'
p397
S'atmega32u4'
p398
ssS'bootloader'
p399
(dp400
S'extended_fuses'
p401
S'0xcb'
p402
sS'high_fuses'
p403
S'0xd8'
p404
sS'low_fuses'
p405
S'0xff'
p406
sS'lock_bits'
p407
S'0x2F'
p408
sS'file'
p409
S'Caterina-Esplora.hex'
p410
sS'path'
p411
S'caterina'
p412
sS'unlock_bits'
p413
S'0x3F'
p414
ssS'upload'
p415
(dp416
S'protocol'
p417
S'avr109'
p418
sS'maximum_size'
p419
S'28672'
p420
sS'speed'
p421
S'57600'
p422
sS'disable_flushing'
p423
S'true'
p424
ssS'name'
p425
S'Arduino Esplora'
p426
saa(lp427
S'micro'
p428
a(dp429
S'build'
p430
(dp431
S'core'
p432
S'arduino'
p433
sS'f_cpu'
p434
S'16000000L'
p435
sS'vid'
p436
S'0x2341'
p437
sS'pid'
p438
S'0x8037'
p439
sS'variant'
p440
S'micro'
p441
sS'mcu'
p442
S'atmega32u4'
p443
ssS'bootloader'
p444
(dp445
S'extended_fuses'
p446
S'0xcb'
p447
sS'high_fuses'
p448
S'0xd8'
p449
sS'low_fuses'
p450
S'0xff'
p451
sS'lock_bits'
p452
S'0x2F'
p453
sS'file'
p454
S'Caterina-Micro.hex'
p455
sS'path'
p456
S'caterina'
p457
sS'unlock_bits'
p458
S'0x3F'
p459
ssS'upload'
p460
(dp461
S'protocol'
p462
S'avr109'
p463
sS'maximum_size'
p464
S'28672'
p465
sS'speed'
p466
S'57600'
p467
sS'disable_flushing'
p468
S'true'
p469
ssS'name'
p470
S'Arduino Micro'
p471
saa(lp472
S'mini328'
p473
a(dp474
S'build'
p475
(dp476
S'core'
p477
S'arduino'
p478
sS'mcu'
p479
S'atmega328p'
p480
sS'f_cpu'
p481
S'16000000L'
p482
sS'variant'
p483
S'eightanaloginputs'
p484
ssS'bootloader'
p485
(dp486
S'extended_fuses'
p487
S'0x05'
p488
sS'high_fuses'
p489
S'0xd8'
p490
sS'low_fuses'
p491
S'0xff'
p492
sS'lock_bits'
p493
S'0x0F'
p494
sS'file'
p495
S'optiboot_atmega328-Mini.hex'
p496
sS'path'
p497
S'optiboot'
p498
sS'unlock_bits'
p499
S'0x3F'
p500
ssS'upload'
p501
(dp502
S'protocol'
p503
S'arduino'
p504
sS'maximum_size'
p505
S'28672'
p506
sS'speed'
p507
S'115200'
p508
ssS'name'
p509
S'Arduino Mini w/ ATmega328'
p510
saa(lp511
S'mini'
p512
a(dp513
S'build'
p514
(dp515
S'core'
p516
S'arduino'
p517
sS'mcu'
p518
S'atmega168'
p519
sS'f_cpu'
p520
S'16000000L'
p521
sS'variant'
p522
S'eightanaloginputs'
p523
ssS'bootloader'
p524
(dp525
S'extended_fuses'
p526
S'0x00'
p527
sS'high_fuses'
p528
S'0xdd'
p529
sS'low_fuses'
p530
S'0xff'
p531
sS'lock_bits'
p532
S'0x0F'
p533
sS'file'
p534
S'ATmegaBOOT_168_ng.hex'
p535
sS'path'
p536
S'atmega'
p537
sS'unlock_bits'
p538
S'0x3F'
p539
ssS'upload'
p540
(dp541
S'protocol'
p542
S'arduino'
p543
sS'maximum_size'
p544
S'14336'
p545
sS'speed'
p546
S'19200'
p547
ssS'name'
p548
S'Arduino Mini w/ ATmega168'
p549
saa(lp550
S'ethernet'
p551
a(dp552
S'build'
p553
(dp554
S'variant'
p555
S'standard'
p556
sS'mcu'
p557
S'atmega328p'
p558
sS'f_cpu'
p559
S'16000000L'
p560
sS'core'
p561
S'arduino'
p562
ssS'bootloader'
p563
(dp564
S'extended_fuses'
p565
S'0x05'
p566
sS'high_fuses'
p567
S'0xde'
p568
sS'low_fuses'
p569
S'0xff'
p570
sS'lock_bits'
p571
S'0x0F'
p572
sS'file'
p573
S'optiboot_atmega328.hex'
p574
sS'path'
p575
S'optiboot'
p576
sS'unlock_bits'
p577
S'0x3F'
p578
ssS'upload'
p579
(dp580
S'protocol'
p581
S'arduino'
p582
sS'maximum_size'
p583
S'32256'
p584
sS'speed'
p585
S'115200'
p586
ssS'name'
p587
S'Arduino Ethernet'
p588
saa(lp589
S'fio'
p590
a(dp591
S'build'
p592
(dp593
S'core'
p594
S'arduino'
p595
sS'mcu'
p596
S'atmega328p'
p597
sS'f_cpu'
p598
S'8000000L'
p599
sS'variant'
p600
S'eightanaloginputs'
p601
ssS'bootloader'
p602
(dp603
S'extended_fuses'
p604
S'0x05'
p605
sS'high_fuses'
p606
S'0xDA'
p607
sS'low_fuses'
p608
S'0xFF'
p609
sS'lock_bits'
p610
S'0x0F'
p611
sS'file'
p612
S'ATmegaBOOT_168_atmega328_pro_8MHz.hex'
p613
sS'path'
p614
S'arduino:atmega'
p615
sS'unlock_bits'
p616
S'0x3F'
p617
ssS'upload'
p618
(dp619
S'protocol'
p620
S'arduino'
p621
sS'maximum_size'
p622
S'30720'
p623
sS'speed'
p624
S'57600'
p625
ssS'name'
p626
S'Arduino Fio'
p627
saa(lp628
S'bt328'
p629
a(dp630
S'build'
p631
(dp632
S'core'
p633
S'arduino'
p634
sS'mcu'
p635
S'atmega328p'
p636
sS'f_cpu'
p637
S'16000000L'
p638
sS'variant'
p639
S'eightanaloginputs'
p640
ssS'bootloader'
p641
(dp642
S'extended_fuses'
p643
S'0x05'
p644
sS'high_fuses'
p645
S'0xd8'
p646
sS'low_fuses'
p647
S'0xff'
p648
sS'lock_bits'
p649
S'0x0F'
p650
sS'file'
p651
S'ATmegaBOOT_168_atmega328_bt.hex'
p652
sS'path'
p653
S'bt'
p654
sS'unlock_bits'
p655
S'0x3F'
p656
ssS'upload'
p657
(dp658
S'protocol'
p659
S'arduino'
p660
sS'maximum_size'
p661
S'28672'
p662
sS'speed'
p663
S'19200'
p664
sS'disable_flushing'
p665
S'true'
p666
ssS'name'
p667
S'Arduino BT w/ ATmega328'
p668
saa(lp669
S'bt'
p670
a(dp671
S'build'
p672
(dp673
S'core'
p674
S'arduino'
p675
sS'mcu'
p676
S'atmega168'
p677
sS'f_cpu'
p678
S'16000000L'
p679
sS'variant'
p680
S'eightanaloginputs'
p681
ssS'bootloader'
p682
(dp683
S'extended_fuses'
p684
S'0x00'
p685
sS'high_fuses'
p686
S'0xdd'
p687
sS'low_fuses'
p688
S'0xff'
p689
sS'lock_bits'
p690
S'0x0F'
p691
sS'file'
p692
S'ATmegaBOOT_168.hex'
p693
sS'path'
p694
S'bt'
p695
sS'unlock_bits'
p696
S'0x3F'
p697
ssS'upload'
p698
(dp699
S'protocol'
p700
S'arduino'
p701
sS'maximum_size'
p702
S'14336'
p703
sS'speed'
p704
S'19200'
p705
sS'disable_flushing'
p706
S'true'
p707
ssS'name'
p708
S'Arduino BT w/ ATmega168'
p709
saa(lp710
S'LilyPadUSB'
p711
a(dp712
S'build'
p713
(dp714
S'core'
p715
S'arduino'
p716
sS'f_cpu'
p717
S'8000000L'
p718
sS'vid'
p719
S'0x1B4F'
p720
sS'pid'
p721
S'0x9208'
p722
sS'variant'
p723
S'leonardo'
p724
sS'mcu'
p725
S'atmega32u4'
p726
ssS'bootloader'
p727
(dp728
S'extended_fuses'
p729
S'0xce'
p730
sS'high_fuses'
p731
S'0xd8'
p732
sS'low_fuses'
p733
S'0xff'
p734
sS'lock_bits'
p735
S'0x2F'
p736
sS'file'
p737
S'Caterina-LilyPadUSB.hex'
p738
sS'path'
p739
S'caterina-LilyPadUSB'
p740
sS'unlock_bits'
p741
S'0x3F'
p742
ssS'upload'
p743
(dp744
S'protocol'
p745
S'avr109'
p746
sS'maximum_size'
p747
S'28672'
p748
sS'speed'
p749
S'57600'
p750
sS'disable_flushing'
p751
S'true'
p752
ssS'name'
p753
S'LilyPad Arduino USB'
p754
saa(lp755
S'lilypad328'
p756
a(dp757
S'build'
p758
(dp759
S'core'
p760
S'arduino'
p761
sS'mcu'
p762
S'atmega328p'
p763
sS'f_cpu'
p764
S'8000000L'
p765
sS'variant'
p766
S'standard'
p767
ssS'bootloader'
p768
(dp769
S'extended_fuses'
p770
S'0x05'
p771
sS'high_fuses'
p772
S'0xDA'
p773
sS'low_fuses'
p774
S'0xFF'
p775
sS'lock_bits'
p776
S'0x0F'
p777
sS'file'
p778
S'ATmegaBOOT_168_atmega328_pro_8MHz.hex'
p779
sS'path'
p780
S'atmega'
p781
sS'unlock_bits'
p782
S'0x3F'
p783
ssS'upload'
p784
(dp785
S'protocol'
p786
S'arduino'
p787
sS'maximum_size'
p788
S'30720'
p789
sS'speed'
p790
S'57600'
p791
ssS'name'
p792
S'LilyPad Arduino w/ ATmega328'
p793
saa(lp794
S'lilypad'
p795
a(dp796
S'build'
p797
(dp798
S'core'
p799
S'arduino'
p800
sS'mcu'
p801
S'atmega168'
p802
sS'f_cpu'
p803
S'8000000L'
p804
sS'variant'
p805
S'standard'
p806
ssS'bootloader'
p807
(dp808
S'extended_fuses'
p809
S'0x00'
p810
sS'high_fuses'
p811
S'0xdd'
p812
sS'low_fuses'
p813
S'0xe2'
p814
sS'lock_bits'
p815
S'0x0F'
p816
sS'file'
p817
S'LilyPadBOOT_168.hex'
p818
sS'path'
p819
S'lilypad'
p820
sS'unlock_bits'
p821
S'0x3F'
p822
ssS'upload'
p823
(dp824
S'protocol'
p825
S'arduino'
p826
sS'maximum_size'
p827
S'14336'
p828
sS'speed'
p829
S'19200'
p830
ssS'name'
p831
S'LilyPad Arduino w/ ATmega168'
p832
saa(lp833
S'pro5v328'
p834
a(dp835
S'build'
p836
(dp837
S'core'
p838
S'arduino'
p839
sS'mcu'
p840
S'atmega328p'
p841
sS'f_cpu'
p842
S'16000000L'
p843
sS'variant'
p844
S'standard'
p845
ssS'bootloader'
p846
(dp847
S'extended_fuses'
p848
S'0x05'
p849
sS'high_fuses'
p850
S'0xDA'
p851
sS'low_fuses'
p852
S'0xFF'
p853
sS'lock_bits'
p854
S'0x0F'
p855
sS'file'
p856
S'ATmegaBOOT_168_atmega328.hex'
p857
sS'path'
p858
S'atmega'
p859
sS'unlock_bits'
p860
S'0x3F'
p861
ssS'upload'
p862
(dp863
S'protocol'
p864
S'arduino'
p865
sS'maximum_size'
p866
S'30720'
p867
sS'speed'
p868
S'57600'
p869
ssS'name'
p870
S'Arduino Pro or Pro Mini (5V, 16 MHz) w/ ATmega328'
p871
saa(lp872
S'pro5v'
p873
a(dp874
S'build'
p875
(dp876
S'core'
p877
S'arduino'
p878
sS'mcu'
p879
S'atmega168'
p880
sS'f_cpu'
p881
S'16000000L'
p882
sS'variant'
p883
S'standard'
p884
ssS'bootloader'
p885
(dp886
S'extended_fuses'
p887
S'0x00'
p888
sS'high_fuses'
p889
S'0xdd'
p890
sS'low_fuses'
p891
S'0xff'
p892
sS'lock_bits'
p893
S'0x0F'
p894
sS'file'
p895
S'ATmegaBOOT_168_diecimila.hex'
p896
sS'path'
p897
S'atmega'
p898
sS'unlock_bits'
p899
S'0x3F'
p900
ssS'upload'
p901
(dp902
S'protocol'
p903
S'arduino'
p904
sS'maximum_size'
p905
S'14336'
p906
sS'speed'
p907
S'19200'
p908
ssS'name'
p909
S'Arduino Pro or Pro Mini (5V, 16 MHz) w/ ATmega168'
p910
saa(lp911
S'pro328'
p912
a(dp913
S'build'
p914
(dp915
S'core'
p916
S'arduino'
p917
sS'mcu'
p918
S'atmega328p'
p919
sS'f_cpu'
p920
S'8000000L'
p921
sS'variant'
p922
S'standard'
p923
ssS'bootloader'
p924
(dp925
S'extended_fuses'
p926
S'0x05'
p927
sS'high_fuses'
p928
S'0xDA'
p929
sS'low_fuses'
p930
S'0xFF'
p931
sS'lock_bits'
p932
S'0x0F'
p933
sS'file'
p934
S'ATmegaBOOT_168_atmega328_pro_8MHz.hex'
p935
sS'path'
p936
S'atmega'
p937
sS'unlock_bits'
p938
S'0x3F'
p939
ssS'upload'
p940
(dp941
S'protocol'
p942
S'arduino'
p943
sS'maximum_size'
p944
S'30720'
p945
sS'speed'
p946
S'57600'
p947
ssS'name'
p948
S'Arduino Pro or Pro Mini (3.3V, 8 MHz) w/ ATmega328'
p949
saa(lp950
S'pro'
p951
a(dp952
S'build'
p953
(dp954
S'core'
p955
S'arduino'
p956
sS'mcu'
p957
S'atmega168'
p958
sS'f_cpu'
p959
S'8000000L'
p960
sS'variant'
p961
S'standard'
p962
ssS'bootloader'
p963
(dp964
S'extended_fuses'
p965
S'0x00'
p966
sS'high_fuses'
p967
S'0xdd'
p968
sS'low_fuses'
p969
S'0xc6'
p970
sS'lock_bits'
p971
S'0x0F'
p972
sS'file'
p973
S'ATmegaBOOT_168_pro_8MHz.hex'
p974
sS'path'
p975
S'atmega'
p976
sS'unlock_bits'
p977
S'0x3F'
p978
ssS'upload'
p979
(dp980
S'protocol'
p981
S'arduino'
p982
sS'maximum_size'
p983
S'14336'
p984
sS'speed'
p985
S'19200'
p986
ssS'name'
p987
S'Arduino Pro or Pro Mini (3.3V, 8 MHz) w/ ATmega168'
p988
saa(lp989
S'atmega168'
p990
a(dp991
S'build'
p992
(dp993
S'core'
p994
S'arduino'
p995
sS'mcu'
p996
S'atmega168'
p997
sS'f_cpu'
p998
S'16000000L'
p999
sS'variant'
p1000
S'standard'
p1001
ssS'bootloader'
p1002
(dp1003
S'extended_fuses'
p1004
S'0x00'
p1005
sS'high_fuses'
p1006
S'0xdd'
p1007
sS'low_fuses'
p1008
S'0xff'
p1009
sS'lock_bits'
p1010
S'0x0F'
p1011
sS'file'
p1012
S'ATmegaBOOT_168_ng.hex'
p1013
sS'path'
p1014
S'atmega'
p1015
sS'unlock_bits'
p1016
S'0x3F'
p1017
ssS'upload'
p1018
(dp1019
S'protocol'
p1020
S'arduino'
p1021
sS'maximum_size'
p1022
S'14336'
p1023
sS'speed'
p1024
S'19200'
p1025
ssS'name'
p1026
S'Arduino NG or older w/ ATmega168'
p1027
saa(lp1028
S'atmega8'
p1029
a(dp1030
S'build'
p1031
(dp1032
S'core'
p1033
S'arduino'
p1034
sS'mcu'
p1035
S'atmega8'
p1036
sS'f_cpu'
p1037
S'16000000L'
p1038
sS'variant'
p1039
S'standard'
p1040
ssS'bootloader'
p1041
(dp1042
S'high_fuses'
p1043
S'0xca'
p1044
sS'low_fuses'
p1045
S'0xdf'
p1046
sS'lock_bits'
p1047
S'0x0F'
p1048
sS'file'
p1049
S'ATmegaBOOT-prod-firmware-2009-11-07.hex'
p1050
sS'path'
p1051
S'atmega8'
p1052
sS'unlock_bits'
p1053
S'0x3F'
p1054
ssS'upload'
p1055
(dp1056
S'protocol'
p1057
S'arduino'
p1058
sS'maximum_size'
p1059
S'7168'
p1060
sS'speed'
p1061
S'19200'
p1062
ssS'name'
p1063
S'Arduino NG or older w/ ATmega8'
p1064
saa(lp1065
S'robotControl'
p1066
a(dp1067
S'build'
p1068
(dp1069
S'core'
p1070
S'robot'
p1071
sS'f_cpu'
p1072
S'16000000L'
p1073
sS'vid'
p1074
S'0x2341'
p1075
sS'pid'
p1076
S'0x8038'
p1077
sS'variant'
p1078
S'robot_control'
p1079
sS'mcu'
p1080
S'atmega32u4'
p1081
ssS'bootloader'
p1082
(dp1083
S'extended_fuses'
p1084
S'0xcb'
p1085
sS'high_fuses'
p1086
S'0xd8'
p1087
sS'low_fuses'
p1088
S'0xff'
p1089
sS'lock_bits'
p1090
S'0x2F'
p1091
sS'file'
p1092
S'Caterina-Robot-Control.hex'
p1093
sS'path'
p1094
S'caterina-Arduino_Robot'
p1095
sS'unlock_bits'
p1096
S'0x3F'
p1097
ssS'upload'
p1098
(dp1099
S'protocol'
p1100
S'avr109'
p1101
sS'maximum_size'
p1102
S'28672'
p1103
sS'speed'
p1104
S'57600'
p1105
sS'disable_flushing'
p1106
S'true'
p1107
ssS'name'
p1108
S'Arduino Robot Control'
p1109
saa(lp1110
S'robotMotor'
p1111
a(dp1112
S'build'
p1113
(dp1114
S'core'
p1115
S'robot'
p1116
sS'f_cpu'
p1117
S'16000000L'
p1118
sS'vid'
p1119
S'0x2341'
p1120
sS'pid'
p1121
S'0x8039'
p1122
sS'variant'
p1123
S'robot_motor'
p1124
sS'mcu'
p1125
S'atmega32u4'
p1126
ssS'bootloader'
p1127
(dp1128
S'extended_fuses'
p1129
S'0xcb'
p1130
sS'high_fuses'
p1131
S'0xd8'
p1132
sS'low_fuses'
p1133
S'0xff'
p1134
sS'lock_bits'
p1135
S'0x2F'
p1136
sS'file'
p1137
S'Caterina-Robot-Motor.hex'
p1138
sS'path'
p1139
S'caterina-Arduino_Robot'
p1140
sS'unlock_bits'
p1141
S'0x3F'
p1142
ssS'upload'
p1143
(dp1144
S'protocol'
p1145
S'avr109'
p1146
sS'maximum_size'
p1147
S'28672'
p1148
sS'speed'
p1149
S'57600'
p1150
sS'disable_flushing'
p1151
S'true'
p1152
ssS'name'
p1153
S'Arduino Robot Motor'
p1154
saatp1155
Rp1156
(dp1157
S'default'
p1158
S'uno'
p1159
sbtp1160
a(S'used_libs'
p1161
(lp1162
S'/Applications/Arduino.app/Contents/Resources/Java/hardware/arduino/cores/arduino'
p1163
atp1164
a(S'make'
p1165
S'/Applications/Arduino.app/Contents/Resources/Java/hardware/tools/avr/bin/make'
p1166
tp1167
a(S'build_dir'
p1168
S'.build/uno'
p1169
tp1170
a(S'cc'
p1171
S'/Applications/Arduino.app/Contents/Resources/Java/hardware/tools/avr/bin/avr-gcc'
p1172
tp1173
a(S'cflags'
p1174
g2
(g3
g4
(lp1175
tp1176
Rp1177
tp1178
a(S'cxxflags'
p1179
g2
(g3
g4
(lp1180
S'-fno-exceptions'
p1181
atp1182
Rp1183
tp1184
a(S'arduino_variants_dir'
p1185
S'/Applications/Arduino.app/Contents/Resources/Java/hardware/arduino/variants'
p1186
tp1187
a(S'stty'
p1188
S'/bin/stty'
p1189
tp1190
a(S'version.txt'
p1191
S'/Applications/Arduino.app/Contents/Resources/Java/lib/version.txt'
p1192
tp1193
a(S'arduino_core_dir'
p1194
g1163
tp1195
a(S'boards.txt'
p1196
S'/Applications/Arduino.app/Contents/Resources/Java/hardware/arduino/boards.txt'
p1197
tp1198
a(S'avrdude.conf'
p1199
S'/Applications/Arduino.app/Contents/Resources/Java/hardware/tools/avr/etc/avrdude.conf'
p1200
tp1201
a(S'deps'
p1202
g2
(g3
g4
(lp1203
S'.build/uno/src/dependencies.d'
p1204
aS'.build/uno/arduino/dependencies.d'
p1205
atp1206
Rp1207
tp1208
a.