(lp0
(S'cppflags'
p1
ccopy_reg
_reconstructor
p2
(cino.utils
SpaceList
p3
c__builtin__
list
p4
(lp5
S'-mmcu=atmega328p'
p6
aS'-DF_CPU=16000000L'
p7
aS'-DARDUINO=105'
p8
aS'-I/Applications/Arduino.app/Contents/Resources/Java/hardware/arduino/cores/arduino'
p9
aS'-ffunction-sections'
p10
aS'-fdata-sections'
p11
aS'-g'
p12
aS'-Os'
p13
aS'-w'
p14
aS'-I/Applications/Arduino.app/Contents/Resources/Java/hardware/arduino/variants/standard'
p15
aS'-I/Applications/Arduino.app/Contents/Resources/Java/hardware/arduino/cores/arduino'
p16
aS'-I/Applications/Arduino.app/Contents/Resources/Java/hardware/arduino/cores/arduino/avr-libc'
p17
atp18
Rp19
tp20
a(S'cxx'
p21
S'/Applications/Arduino.app/Contents/Resources/Java/hardware/tools/avr/bin/avr-g++'
p22
tp23
a(S'build_dir'
p24
S'.build/uno'
p25
tp26
a(S'avrdude'
p27
S'/Applications/Arduino.app/Contents/Resources/Java/hardware/tools/avr/bin/avrdude'
p28
tp29
a(S'ar'
p30
S'/Applications/Arduino.app/Contents/Resources/Java/hardware/tools/avr/bin/avr-ar'
p31
tp32
a(S'names'
p33
(dp34
S'cpp'
p35
S'%s.cpp'
p36
sS'obj'
p37
S'%s.o'
p38
sS'deps'
p39
S'%s.d'
p40
sS'lib'
p41
S'lib%s.a'
p42
stp43
a(S'ldflags'
p44
g2
(g3
g4
(lp45
g6
aS'-Wl,-Os'
p46
aS'-Wl,--gc-sections'
p47
atp48
Rp49
tp50
a(S'arduino_lib_version'
p51
g2
(cino.environment
Version
p52
c__builtin__
tuple
p53
(I1
I0
I5
tp54
tp55
Rp56
tp57
a(S'objcopy'
p58
S'/Applications/Arduino.app/Contents/Resources/Java/hardware/tools/avr/bin/avr-objcopy'
p59
tp60
a(S'board_models'
p61
cino.environment
BoardModels
p62
((lp63
(lp64
S'uno'
p65
a(dp66
S'bootloader'
p67
(dp68
S'extended_fuses'
p69
S'0x05'
p70
sS'high_fuses'
p71
S'0xde'
p72
sS'low_fuses'
p73
S'0xff'
p74
sS'lock_bits'
p75
S'0x0F'
p76
sS'file'
p77
S'optiboot_atmega328.hex'
p78
sS'path'
p79
S'optiboot'
p80
sS'unlock_bits'
p81
S'0x3F'
p82
ssS'build'
p83
(dp84
S'core'
p85
S'arduino'
p86
sS'mcu'
p87
S'atmega328p'
p88
sS'f_cpu'
p89
S'16000000L'
p90
sS'variant'
p91
S'standard'
p92
ssS'name'
p93
S'Arduino Uno'
p94
sS'upload'
p95
(dp96
S'speed'
p97
S'115200'
p98
sS'maximum_size'
p99
S'32256'
p100
sS'protocol'
p101
S'arduino'
p102
ssaa(lp103
S'atmega328'
p104
a(dp105
S'bootloader'
p106
(dp107
S'extended_fuses'
p108
S'0x05'
p109
sS'high_fuses'
p110
S'0xDA'
p111
sS'low_fuses'
p112
S'0xFF'
p113
sS'lock_bits'
p114
S'0x0F'
p115
sS'file'
p116
S'ATmegaBOOT_168_atmega328.hex'
p117
sS'path'
p118
S'atmega'
p119
sS'unlock_bits'
p120
S'0x3F'
p121
ssS'build'
p122
(dp123
S'core'
p124
S'arduino'
p125
sS'mcu'
p126
S'atmega328p'
p127
sS'f_cpu'
p128
S'16000000L'
p129
sS'variant'
p130
S'standard'
p131
ssS'name'
p132
S'Arduino Duemilanove w/ ATmega328'
p133
sS'upload'
p134
(dp135
S'speed'
p136
S'57600'
p137
sS'maximum_size'
p138
S'30720'
p139
sS'protocol'
p140
S'arduino'
p141
ssaa(lp142
S'diecimila'
p143
a(dp144
S'bootloader'
p145
(dp146
S'extended_fuses'
p147
S'0x00'
p148
sS'high_fuses'
p149
S'0xdd'
p150
sS'low_fuses'
p151
S'0xff'
p152
sS'lock_bits'
p153
S'0x0F'
p154
sS'file'
p155
S'ATmegaBOOT_168_diecimila.hex'
p156
sS'path'
p157
S'atmega'
p158
sS'unlock_bits'
p159
S'0x3F'
p160
ssS'build'
p161
(dp162
S'core'
p163
S'arduino'
p164
sS'mcu'
p165
S'atmega168'
p166
sS'f_cpu'
p167
S'16000000L'
p168
sS'variant'
p169
S'standard'
p170
ssS'name'
p171
S'Arduino Diecimila or Duemilanove w/ ATmega168'
p172
sS'upload'
p173
(dp174
S'speed'
p175
S'19200'
p176
sS'maximum_size'
p177
S'14336'
p178
sS'protocol'
p179
S'arduino'
p180
ssaa(lp181
S'nano328'
p182
a(dp183
S'bootloader'
p184
(dp185
S'extended_fuses'
p186
S'0x05'
p187
sS'high_fuses'
p188
S'0xDA'
p189
sS'low_fuses'
p190
S'0xFF'
p191
sS'lock_bits'
p192
S'0x0F'
p193
sS'file'
p194
S'ATmegaBOOT_168_atmega328.hex'
p195
sS'path'
p196
S'atmega'
p197
sS'unlock_bits'
p198
S'0x3F'
p199
ssS'build'
p200
(dp201
S'core'
p202
S'arduino'
p203
sS'mcu'
p204
S'atmega328p'
p205
sS'f_cpu'
p206
S'16000000L'
p207
sS'variant'
p208
S'eightanaloginputs'
p209
ssS'name'
p210
S'Arduino Nano w/ ATmega328'
p211
sS'upload'
p212
(dp213
S'speed'
p214
S'57600'
p215
sS'maximum_size'
p216
S'30720'
p217
sS'protocol'
p218
S'arduino'
p219
ssaa(lp220
S'nano'
p221
a(dp222
S'bootloader'
p223
(dp224
S'extended_fuses'
p225
S'0x00'
p226
sS'high_fuses'
p227
S'0xdd'
p228
sS'low_fuses'
p229
S'0xff'
p230
sS'lock_bits'
p231
S'0x0F'
p232
sS'file'
p233
S'ATmegaBOOT_168_diecimila.hex'
p234
sS'path'
p235
S'atmega'
p236
sS'unlock_bits'
p237
S'0x3F'
p238
ssS'build'
p239
(dp240
S'core'
p241
S'arduino'
p242
sS'mcu'
p243
S'atmega168'
p244
sS'f_cpu'
p245
S'16000000L'
p246
sS'variant'
p247
S'eightanaloginputs'
p248
ssS'name'
p249
S'Arduino Nano w/ ATmega168'
p250
sS'upload'
p251
(dp252
S'speed'
p253
S'19200'
p254
sS'maximum_size'
p255
S'14336'
p256
sS'protocol'
p257
S'arduino'
p258
ssaa(lp259
S'mega2560'
p260
a(dp261
S'bootloader'
p262
(dp263
S'extended_fuses'
p264
S'0xFD'
p265
sS'high_fuses'
p266
S'0xD8'
p267
sS'low_fuses'
p268
S'0xFF'
p269
sS'lock_bits'
p270
S'0x0F'
p271
sS'file'
p272
S'stk500boot_v2_mega2560.hex'
p273
sS'path'
p274
S'stk500v2'
p275
sS'unlock_bits'
p276
S'0x3F'
p277
ssS'build'
p278
(dp279
S'core'
p280
S'arduino'
p281
sS'mcu'
p282
S'atmega2560'
p283
sS'f_cpu'
p284
S'16000000L'
p285
sS'variant'
p286
S'mega'
p287
ssS'name'
p288
S'Arduino Mega 2560 or Mega ADK'
p289
sS'upload'
p290
(dp291
S'speed'
p292
S'115200'
p293
sS'maximum_size'
p294
S'258048'
p295
sS'protocol'
p296
S'wiring'
p297
ssaa(lp298
S'mega'
p299
a(dp300
S'bootloader'
p301
(dp302
S'extended_fuses'
p303
S'0xF5'
p304
sS'high_fuses'
p305
S'0xDA'
p306
sS'low_fuses'
p307
S'0xFF'
p308
sS'lock_bits'
p309
S'0x0F'
p310
sS'file'
p311
S'ATmegaBOOT_168_atmega1280.hex'
p312
sS'path'
p313
S'atmega'
p314
sS'unlock_bits'
p315
S'0x3F'
p316
ssS'build'
p317
(dp318
S'core'
p319
S'arduino'
p320
sS'mcu'
p321
S'atmega1280'
p322
sS'f_cpu'
p323
S'16000000L'
p324
sS'variant'
p325
S'mega'
p326
ssS'name'
p327
S'Arduino Mega (ATmega1280)'
p328
sS'upload'
p329
(dp330
S'speed'
p331
S'57600'
p332
sS'maximum_size'
p333
S'126976'
p334
sS'protocol'
p335
S'arduino'
p336
ssaa(lp337
S'leonardo'
p338
a(dp339
S'bootloader'
p340
(dp341
S'extended_fuses'
p342
S'0xcb'
p343
sS'high_fuses'
p344
S'0xd8'
p345
sS'low_fuses'
p346
S'0xff'
p347
sS'lock_bits'
p348
S'0x2F'
p349
sS'file'
p350
S'Caterina-Leonardo.hex'
p351
sS'path'
p352
S'caterina'
p353
sS'unlock_bits'
p354
S'0x3F'
p355
ssS'build'
p356
(dp357
S'core'
p358
S'arduino'
p359
sS'f_cpu'
p360
S'16000000L'
p361
sS'vid'
p362
S'0x2341'
p363
sS'pid'
p364
S'0x8036'
p365
sS'variant'
p366
S'leonardo'
p367
sS'mcu'
p368
S'atmega32u4'
p369
ssS'name'
p370
S'Arduino Leonardo'
p371
sS'upload'
p372
(dp373
S'speed'
p374
S'57600'
p375
sS'maximum_size'
p376
S'28672'
p377
sS'protocol'
p378
S'avr109'
p379
sS'disable_flushing'
p380
S'true'
p381
ssaa(lp382
S'esplora'
p383
a(dp384
S'bootloader'
p385
(dp386
S'extended_fuses'
p387
S'0xcb'
p388
sS'high_fuses'
p389
S'0xd8'
p390
sS'low_fuses'
p391
S'0xff'
p392
sS'lock_bits'
p393
S'0x2F'
p394
sS'file'
p395
S'Caterina-Esplora.hex'
p396
sS'path'
p397
S'caterina'
p398
sS'unlock_bits'
p399
S'0x3F'
p400
ssS'build'
p401
(dp402
S'core'
p403
S'arduino'
p404
sS'f_cpu'
p405
S'16000000L'
p406
sS'vid'
p407
S'0x2341'
p408
sS'pid'
p409
S'0x803C'
p410
sS'variant'
p411
S'leonardo'
p412
sS'mcu'
p413
S'atmega32u4'
p414
ssS'name'
p415
S'Arduino Esplora'
p416
sS'upload'
p417
(dp418
S'speed'
p419
S'57600'
p420
sS'maximum_size'
p421
S'28672'
p422
sS'protocol'
p423
S'avr109'
p424
sS'disable_flushing'
p425
S'true'
p426
ssaa(lp427
S'micro'
p428
a(dp429
S'bootloader'
p430
(dp431
S'extended_fuses'
p432
S'0xcb'
p433
sS'high_fuses'
p434
S'0xd8'
p435
sS'low_fuses'
p436
S'0xff'
p437
sS'lock_bits'
p438
S'0x2F'
p439
sS'file'
p440
S'Caterina-Micro.hex'
p441
sS'path'
p442
S'caterina'
p443
sS'unlock_bits'
p444
S'0x3F'
p445
ssS'build'
p446
(dp447
S'core'
p448
S'arduino'
p449
sS'f_cpu'
p450
S'16000000L'
p451
sS'vid'
p452
S'0x2341'
p453
sS'pid'
p454
S'0x8037'
p455
sS'variant'
p456
S'micro'
p457
sS'mcu'
p458
S'atmega32u4'
p459
ssS'name'
p460
S'Arduino Micro'
p461
sS'upload'
p462
(dp463
S'speed'
p464
S'57600'
p465
sS'maximum_size'
p466
S'28672'
p467
sS'protocol'
p468
S'avr109'
p469
sS'disable_flushing'
p470
S'true'
p471
ssaa(lp472
S'mini328'
p473
a(dp474
S'bootloader'
p475
(dp476
S'extended_fuses'
p477
S'0x05'
p478
sS'high_fuses'
p479
S'0xd8'
p480
sS'low_fuses'
p481
S'0xff'
p482
sS'lock_bits'
p483
S'0x0F'
p484
sS'file'
p485
S'optiboot_atmega328-Mini.hex'
p486
sS'path'
p487
S'optiboot'
p488
sS'unlock_bits'
p489
S'0x3F'
p490
ssS'build'
p491
(dp492
S'core'
p493
S'arduino'
p494
sS'mcu'
p495
S'atmega328p'
p496
sS'f_cpu'
p497
S'16000000L'
p498
sS'variant'
p499
S'eightanaloginputs'
p500
ssS'name'
p501
S'Arduino Mini w/ ATmega328'
p502
sS'upload'
p503
(dp504
S'speed'
p505
S'115200'
p506
sS'maximum_size'
p507
S'28672'
p508
sS'protocol'
p509
S'arduino'
p510
ssaa(lp511
S'mini'
p512
a(dp513
S'bootloader'
p514
(dp515
S'extended_fuses'
p516
S'0x00'
p517
sS'high_fuses'
p518
S'0xdd'
p519
sS'low_fuses'
p520
S'0xff'
p521
sS'lock_bits'
p522
S'0x0F'
p523
sS'file'
p524
S'ATmegaBOOT_168_ng.hex'
p525
sS'path'
p526
S'atmega'
p527
sS'unlock_bits'
p528
S'0x3F'
p529
ssS'build'
p530
(dp531
S'core'
p532
S'arduino'
p533
sS'mcu'
p534
S'atmega168'
p535
sS'f_cpu'
p536
S'16000000L'
p537
sS'variant'
p538
S'eightanaloginputs'
p539
ssS'name'
p540
S'Arduino Mini w/ ATmega168'
p541
sS'upload'
p542
(dp543
S'speed'
p544
S'19200'
p545
sS'maximum_size'
p546
S'14336'
p547
sS'protocol'
p548
S'arduino'
p549
ssaa(lp550
S'ethernet'
p551
a(dp552
S'bootloader'
p553
(dp554
S'extended_fuses'
p555
S'0x05'
p556
sS'high_fuses'
p557
S'0xde'
p558
sS'low_fuses'
p559
S'0xff'
p560
sS'lock_bits'
p561
S'0x0F'
p562
sS'file'
p563
S'optiboot_atmega328.hex'
p564
sS'path'
p565
S'optiboot'
p566
sS'unlock_bits'
p567
S'0x3F'
p568
ssS'build'
p569
(dp570
S'f_cpu'
p571
S'16000000L'
p572
sS'mcu'
p573
S'atmega328p'
p574
sS'variant'
p575
S'standard'
p576
sS'core'
p577
S'arduino'
p578
ssS'name'
p579
S'Arduino Ethernet'
p580
sS'upload'
p581
(dp582
S'speed'
p583
S'115200'
p584
sS'maximum_size'
p585
S'32256'
p586
sS'protocol'
p587
S'arduino'
p588
ssaa(lp589
S'fio'
p590
a(dp591
S'bootloader'
p592
(dp593
S'extended_fuses'
p594
S'0x05'
p595
sS'high_fuses'
p596
S'0xDA'
p597
sS'low_fuses'
p598
S'0xFF'
p599
sS'lock_bits'
p600
S'0x0F'
p601
sS'file'
p602
S'ATmegaBOOT_168_atmega328_pro_8MHz.hex'
p603
sS'path'
p604
S'arduino:atmega'
p605
sS'unlock_bits'
p606
S'0x3F'
p607
ssS'build'
p608
(dp609
S'core'
p610
S'arduino'
p611
sS'mcu'
p612
S'atmega328p'
p613
sS'f_cpu'
p614
S'8000000L'
p615
sS'variant'
p616
S'eightanaloginputs'
p617
ssS'name'
p618
S'Arduino Fio'
p619
sS'upload'
p620
(dp621
S'speed'
p622
S'57600'
p623
sS'maximum_size'
p624
S'30720'
p625
sS'protocol'
p626
S'arduino'
p627
ssaa(lp628
S'bt328'
p629
a(dp630
S'bootloader'
p631
(dp632
S'extended_fuses'
p633
S'0x05'
p634
sS'high_fuses'
p635
S'0xd8'
p636
sS'low_fuses'
p637
S'0xff'
p638
sS'lock_bits'
p639
S'0x0F'
p640
sS'file'
p641
S'ATmegaBOOT_168_atmega328_bt.hex'
p642
sS'path'
p643
S'bt'
p644
sS'unlock_bits'
p645
S'0x3F'
p646
ssS'build'
p647
(dp648
S'core'
p649
S'arduino'
p650
sS'mcu'
p651
S'atmega328p'
p652
sS'f_cpu'
p653
S'16000000L'
p654
sS'variant'
p655
S'eightanaloginputs'
p656
ssS'name'
p657
S'Arduino BT w/ ATmega328'
p658
sS'upload'
p659
(dp660
S'speed'
p661
S'19200'
p662
sS'maximum_size'
p663
S'28672'
p664
sS'protocol'
p665
S'arduino'
p666
sS'disable_flushing'
p667
S'true'
p668
ssaa(lp669
S'bt'
p670
a(dp671
S'bootloader'
p672
(dp673
S'extended_fuses'
p674
S'0x00'
p675
sS'high_fuses'
p676
S'0xdd'
p677
sS'low_fuses'
p678
S'0xff'
p679
sS'lock_bits'
p680
S'0x0F'
p681
sS'file'
p682
S'ATmegaBOOT_168.hex'
p683
sS'path'
p684
S'bt'
p685
sS'unlock_bits'
p686
S'0x3F'
p687
ssS'build'
p688
(dp689
S'core'
p690
S'arduino'
p691
sS'mcu'
p692
S'atmega168'
p693
sS'f_cpu'
p694
S'16000000L'
p695
sS'variant'
p696
S'eightanaloginputs'
p697
ssS'name'
p698
S'Arduino BT w/ ATmega168'
p699
sS'upload'
p700
(dp701
S'speed'
p702
S'19200'
p703
sS'maximum_size'
p704
S'14336'
p705
sS'protocol'
p706
S'arduino'
p707
sS'disable_flushing'
p708
S'true'
p709
ssaa(lp710
S'LilyPadUSB'
p711
a(dp712
S'bootloader'
p713
(dp714
S'extended_fuses'
p715
S'0xce'
p716
sS'high_fuses'
p717
S'0xd8'
p718
sS'low_fuses'
p719
S'0xff'
p720
sS'lock_bits'
p721
S'0x2F'
p722
sS'file'
p723
S'Caterina-LilyPadUSB.hex'
p724
sS'path'
p725
S'caterina-LilyPadUSB'
p726
sS'unlock_bits'
p727
S'0x3F'
p728
ssS'build'
p729
(dp730
S'core'
p731
S'arduino'
p732
sS'f_cpu'
p733
S'8000000L'
p734
sS'vid'
p735
S'0x1B4F'
p736
sS'pid'
p737
S'0x9208'
p738
sS'variant'
p739
S'leonardo'
p740
sS'mcu'
p741
S'atmega32u4'
p742
ssS'name'
p743
S'LilyPad Arduino USB'
p744
sS'upload'
p745
(dp746
S'speed'
p747
S'57600'
p748
sS'maximum_size'
p749
S'28672'
p750
sS'protocol'
p751
S'avr109'
p752
sS'disable_flushing'
p753
S'true'
p754
ssaa(lp755
S'lilypad328'
p756
a(dp757
S'bootloader'
p758
(dp759
S'extended_fuses'
p760
S'0x05'
p761
sS'high_fuses'
p762
S'0xDA'
p763
sS'low_fuses'
p764
S'0xFF'
p765
sS'lock_bits'
p766
S'0x0F'
p767
sS'file'
p768
S'ATmegaBOOT_168_atmega328_pro_8MHz.hex'
p769
sS'path'
p770
S'atmega'
p771
sS'unlock_bits'
p772
S'0x3F'
p773
ssS'build'
p774
(dp775
S'core'
p776
S'arduino'
p777
sS'mcu'
p778
S'atmega328p'
p779
sS'f_cpu'
p780
S'8000000L'
p781
sS'variant'
p782
S'standard'
p783
ssS'name'
p784
S'LilyPad Arduino w/ ATmega328'
p785
sS'upload'
p786
(dp787
S'speed'
p788
S'57600'
p789
sS'maximum_size'
p790
S'30720'
p791
sS'protocol'
p792
S'arduino'
p793
ssaa(lp794
S'lilypad'
p795
a(dp796
S'bootloader'
p797
(dp798
S'extended_fuses'
p799
S'0x00'
p800
sS'high_fuses'
p801
S'0xdd'
p802
sS'low_fuses'
p803
S'0xe2'
p804
sS'lock_bits'
p805
S'0x0F'
p806
sS'file'
p807
S'LilyPadBOOT_168.hex'
p808
sS'path'
p809
S'lilypad'
p810
sS'unlock_bits'
p811
S'0x3F'
p812
ssS'build'
p813
(dp814
S'core'
p815
S'arduino'
p816
sS'mcu'
p817
S'atmega168'
p818
sS'f_cpu'
p819
S'8000000L'
p820
sS'variant'
p821
S'standard'
p822
ssS'name'
p823
S'LilyPad Arduino w/ ATmega168'
p824
sS'upload'
p825
(dp826
S'speed'
p827
S'19200'
p828
sS'maximum_size'
p829
S'14336'
p830
sS'protocol'
p831
S'arduino'
p832
ssaa(lp833
S'pro5v328'
p834
a(dp835
S'bootloader'
p836
(dp837
S'extended_fuses'
p838
S'0x05'
p839
sS'high_fuses'
p840
S'0xDA'
p841
sS'low_fuses'
p842
S'0xFF'
p843
sS'lock_bits'
p844
S'0x0F'
p845
sS'file'
p846
S'ATmegaBOOT_168_atmega328.hex'
p847
sS'path'
p848
S'atmega'
p849
sS'unlock_bits'
p850
S'0x3F'
p851
ssS'build'
p852
(dp853
S'core'
p854
S'arduino'
p855
sS'mcu'
p856
S'atmega328p'
p857
sS'f_cpu'
p858
S'16000000L'
p859
sS'variant'
p860
S'standard'
p861
ssS'name'
p862
S'Arduino Pro or Pro Mini (5V, 16 MHz) w/ ATmega328'
p863
sS'upload'
p864
(dp865
S'speed'
p866
S'57600'
p867
sS'maximum_size'
p868
S'30720'
p869
sS'protocol'
p870
S'arduino'
p871
ssaa(lp872
S'pro5v'
p873
a(dp874
S'bootloader'
p875
(dp876
S'extended_fuses'
p877
S'0x00'
p878
sS'high_fuses'
p879
S'0xdd'
p880
sS'low_fuses'
p881
S'0xff'
p882
sS'lock_bits'
p883
S'0x0F'
p884
sS'file'
p885
S'ATmegaBOOT_168_diecimila.hex'
p886
sS'path'
p887
S'atmega'
p888
sS'unlock_bits'
p889
S'0x3F'
p890
ssS'build'
p891
(dp892
S'core'
p893
S'arduino'
p894
sS'mcu'
p895
S'atmega168'
p896
sS'f_cpu'
p897
S'16000000L'
p898
sS'variant'
p899
S'standard'
p900
ssS'name'
p901
S'Arduino Pro or Pro Mini (5V, 16 MHz) w/ ATmega168'
p902
sS'upload'
p903
(dp904
S'speed'
p905
S'19200'
p906
sS'maximum_size'
p907
S'14336'
p908
sS'protocol'
p909
S'arduino'
p910
ssaa(lp911
S'pro328'
p912
a(dp913
S'bootloader'
p914
(dp915
S'extended_fuses'
p916
S'0x05'
p917
sS'high_fuses'
p918
S'0xDA'
p919
sS'low_fuses'
p920
S'0xFF'
p921
sS'lock_bits'
p922
S'0x0F'
p923
sS'file'
p924
S'ATmegaBOOT_168_atmega328_pro_8MHz.hex'
p925
sS'path'
p926
S'atmega'
p927
sS'unlock_bits'
p928
S'0x3F'
p929
ssS'build'
p930
(dp931
S'core'
p932
S'arduino'
p933
sS'mcu'
p934
S'atmega328p'
p935
sS'f_cpu'
p936
S'8000000L'
p937
sS'variant'
p938
S'standard'
p939
ssS'name'
p940
S'Arduino Pro or Pro Mini (3.3V, 8 MHz) w/ ATmega328'
p941
sS'upload'
p942
(dp943
S'speed'
p944
S'57600'
p945
sS'maximum_size'
p946
S'30720'
p947
sS'protocol'
p948
S'arduino'
p949
ssaa(lp950
S'pro'
p951
a(dp952
S'bootloader'
p953
(dp954
S'extended_fuses'
p955
S'0x00'
p956
sS'high_fuses'
p957
S'0xdd'
p958
sS'low_fuses'
p959
S'0xc6'
p960
sS'lock_bits'
p961
S'0x0F'
p962
sS'file'
p963
S'ATmegaBOOT_168_pro_8MHz.hex'
p964
sS'path'
p965
S'atmega'
p966
sS'unlock_bits'
p967
S'0x3F'
p968
ssS'build'
p969
(dp970
S'core'
p971
S'arduino'
p972
sS'mcu'
p973
S'atmega168'
p974
sS'f_cpu'
p975
S'8000000L'
p976
sS'variant'
p977
S'standard'
p978
ssS'name'
p979
S'Arduino Pro or Pro Mini (3.3V, 8 MHz) w/ ATmega168'
p980
sS'upload'
p981
(dp982
S'speed'
p983
S'19200'
p984
sS'maximum_size'
p985
S'14336'
p986
sS'protocol'
p987
S'arduino'
p988
ssaa(lp989
S'atmega168'
p990
a(dp991
S'bootloader'
p992
(dp993
S'extended_fuses'
p994
S'0x00'
p995
sS'high_fuses'
p996
S'0xdd'
p997
sS'low_fuses'
p998
S'0xff'
p999
sS'lock_bits'
p1000
S'0x0F'
p1001
sS'file'
p1002
S'ATmegaBOOT_168_ng.hex'
p1003
sS'path'
p1004
S'atmega'
p1005
sS'unlock_bits'
p1006
S'0x3F'
p1007
ssS'build'
p1008
(dp1009
S'core'
p1010
S'arduino'
p1011
sS'mcu'
p1012
S'atmega168'
p1013
sS'f_cpu'
p1014
S'16000000L'
p1015
sS'variant'
p1016
S'standard'
p1017
ssS'name'
p1018
S'Arduino NG or older w/ ATmega168'
p1019
sS'upload'
p1020
(dp1021
S'speed'
p1022
S'19200'
p1023
sS'maximum_size'
p1024
S'14336'
p1025
sS'protocol'
p1026
S'arduino'
p1027
ssaa(lp1028
S'atmega8'
p1029
a(dp1030
S'bootloader'
p1031
(dp1032
S'high_fuses'
p1033
S'0xca'
p1034
sS'low_fuses'
p1035
S'0xdf'
p1036
sS'lock_bits'
p1037
S'0x0F'
p1038
sS'file'
p1039
S'ATmegaBOOT-prod-firmware-2009-11-07.hex'
p1040
sS'path'
p1041
S'atmega8'
p1042
sS'unlock_bits'
p1043
S'0x3F'
p1044
ssS'build'
p1045
(dp1046
S'core'
p1047
S'arduino'
p1048
sS'mcu'
p1049
S'atmega8'
p1050
sS'f_cpu'
p1051
S'16000000L'
p1052
sS'variant'
p1053
S'standard'
p1054
ssS'name'
p1055
S'Arduino NG or older w/ ATmega8'
p1056
sS'upload'
p1057
(dp1058
S'speed'
p1059
S'19200'
p1060
sS'maximum_size'
p1061
S'7168'
p1062
sS'protocol'
p1063
S'arduino'
p1064
ssaa(lp1065
S'robotControl'
p1066
a(dp1067
S'bootloader'
p1068
(dp1069
S'extended_fuses'
p1070
S'0xcb'
p1071
sS'high_fuses'
p1072
S'0xd8'
p1073
sS'low_fuses'
p1074
S'0xff'
p1075
sS'lock_bits'
p1076
S'0x2F'
p1077
sS'file'
p1078
S'Caterina-Robot-Control.hex'
p1079
sS'path'
p1080
S'caterina-Arduino_Robot'
p1081
sS'unlock_bits'
p1082
S'0x3F'
p1083
ssS'build'
p1084
(dp1085
S'core'
p1086
S'robot'
p1087
sS'f_cpu'
p1088
S'16000000L'
p1089
sS'vid'
p1090
S'0x2341'
p1091
sS'pid'
p1092
S'0x8038'
p1093
sS'variant'
p1094
S'robot_control'
p1095
sS'mcu'
p1096
S'atmega32u4'
p1097
ssS'name'
p1098
S'Arduino Robot Control'
p1099
sS'upload'
p1100
(dp1101
S'speed'
p1102
S'57600'
p1103
sS'maximum_size'
p1104
S'28672'
p1105
sS'protocol'
p1106
S'avr109'
p1107
sS'disable_flushing'
p1108
S'true'
p1109
ssaa(lp1110
S'robotMotor'
p1111
a(dp1112
S'bootloader'
p1113
(dp1114
S'extended_fuses'
p1115
S'0xcb'
p1116
sS'high_fuses'
p1117
S'0xd8'
p1118
sS'low_fuses'
p1119
S'0xff'
p1120
sS'lock_bits'
p1121
S'0x2F'
p1122
sS'file'
p1123
S'Caterina-Robot-Motor.hex'
p1124
sS'path'
p1125
S'caterina-Arduino_Robot'
p1126
sS'unlock_bits'
p1127
S'0x3F'
p1128
ssS'build'
p1129
(dp1130
S'core'
p1131
S'robot'
p1132
sS'f_cpu'
p1133
S'16000000L'
p1134
sS'vid'
p1135
S'0x2341'
p1136
sS'pid'
p1137
S'0x8039'
p1138
sS'variant'
p1139
S'robot_motor'
p1140
sS'mcu'
p1141
S'atmega32u4'
p1142
ssS'name'
p1143
S'Arduino Robot Motor'
p1144
sS'upload'
p1145
(dp1146
S'speed'
p1147
S'57600'
p1148
sS'maximum_size'
p1149
S'28672'
p1150
sS'protocol'
p1151
S'avr109'
p1152
sS'disable_flushing'
p1153
S'true'
p1154
ssaatp1155
Rp1156
(dp1157
S'default'
p1158
S'uno'
p1159
sbtp1160
a(S'used_libs'
p1161
(lp1162
S'/Applications/Arduino.app/Contents/Resources/Java/hardware/arduino/cores/arduino'
p1163
atp1164
a(S'make'
p1165
S'/Applications/Arduino.app/Contents/Resources/Java/hardware/tools/avr/bin/make'
p1166
tp1167
a(S'arduino_libraries_dir'
p1168
S'/Applications/Arduino.app/Contents/Resources/Java/libraries'
p1169
tp1170
a(S'cc'
p1171
S'/Applications/Arduino.app/Contents/Resources/Java/hardware/tools/avr/bin/avr-gcc'
p1172
tp1173
a(S'cflags'
p1174
g2
(g3
g4
(lp1175
tp1176
Rp1177
tp1178
a(S'cxxflags'
p1179
g2
(g3
g4
(lp1180
S'-fno-exceptions'
p1181
atp1182
Rp1183
tp1184
a(S'arduino_variants_dir'
p1185
S'/Applications/Arduino.app/Contents/Resources/Java/hardware/arduino/variants'
p1186
tp1187
a(S'stty'
p1188
S'/bin/stty'
p1189
tp1190
a(S'version.txt'
p1191
S'/Applications/Arduino.app/Contents/Resources/Java/lib/version.txt'
p1192
tp1193
a(S'arduino_core_dir'
p1194
g1163
tp1195
a(S'boards.txt'
p1196
S'/Applications/Arduino.app/Contents/Resources/Java/hardware/arduino/boards.txt'
p1197
tp1198
a(S'avrdude.conf'
p1199
S'/Applications/Arduino.app/Contents/Resources/Java/hardware/tools/avr/etc/avrdude.conf'
p1200
tp1201
a(S'deps'
p1202
g2
(g3
g4
(lp1203
S'.build/uno/src/dependencies.d'
p1204
aS'.build/uno/arduino/dependencies.d'
p1205
atp1206
Rp1207
tp1208
a.