(lp0
(S'cppflags'
p1
ccopy_reg
_reconstructor
p2
(cino.utils
SpaceList
p3
c__builtin__
list
p4
(lp5
S'-mmcu=atmega328p'
p6
aS'-DF_CPU=16000000L'
p7
aS'-DARDUINO=105'
p8
aS'-I/Applications/Arduino.app/Contents/Resources/Java/hardware/arduino/cores/arduino'
p9
aS'-ffunction-sections'
p10
aS'-fdata-sections'
p11
aS'-g'
p12
aS'-Os'
p13
aS'-w'
p14
aS'-I/Applications/Arduino.app/Contents/Resources/Java/hardware/arduino/variants/standard'
p15
aS'-I/Applications/Arduino.app/Contents/Resources/Java/hardware/arduino/cores/arduino'
p16
aS'-I/Applications/Arduino.app/Contents/Resources/Java/hardware/arduino/cores/arduino/avr-libc'
p17
atp18
Rp19
tp20
a(S'cxx'
p21
S'/Applications/Arduino.app/Contents/Resources/Java/hardware/tools/avr/bin/avr-g++'
p22
tp23
a(S'build_dir'
p24
S'.build/uno'
p25
tp26
a(S'avrdude'
p27
S'/Applications/Arduino.app/Contents/Resources/Java/hardware/tools/avr/bin/avrdude'
p28
tp29
a(S'ar'
p30
S'/Applications/Arduino.app/Contents/Resources/Java/hardware/tools/avr/bin/avr-ar'
p31
tp32
a(S'names'
p33
(dp34
S'cpp'
p35
S'%s.cpp'
p36
sS'obj'
p37
S'%s.o'
p38
sS'lib'
p39
S'lib%s.a'
p40
sS'deps'
p41
S'%s.d'
p42
stp43
a(S'ldflags'
p44
g2
(g3
g4
(lp45
g6
aS'-Wl,-Os'
p46
aS'-Wl,--gc-sections'
p47
atp48
Rp49
tp50
a(S'arduino_lib_version'
p51
g2
(cino.environment
Version
p52
c__builtin__
tuple
p53
(I1
I0
I5
tp54
tp55
Rp56
tp57
a(S'objcopy'
p58
S'/Applications/Arduino.app/Contents/Resources/Java/hardware/tools/avr/bin/avr-objcopy'
p59
tp60
a(S'board_models'
p61
cino.environment
BoardModels
p62
((lp63
(lp64
S'uno'
p65
a(dp66
S'bootloader'
p67
(dp68
S'extended_fuses'
p69
S'0x05'
p70
sS'high_fuses'
p71
S'0xde'
p72
sS'low_fuses'
p73
S'0xff'
p74
sS'lock_bits'
p75
S'0x0F'
p76
sS'file'
p77
S'optiboot_atmega328.hex'
p78
sS'path'
p79
S'optiboot'
p80
sS'unlock_bits'
p81
S'0x3F'
p82
ssS'upload'
p83
(dp84
S'speed'
p85
S'115200'
p86
sS'maximum_size'
p87
S'32256'
p88
sS'protocol'
p89
S'arduino'
p90
ssS'name'
p91
S'Arduino Uno'
p92
sS'build'
p93
(dp94
S'core'
p95
S'arduino'
p96
sS'mcu'
p97
S'atmega328p'
p98
sS'f_cpu'
p99
S'16000000L'
p100
sS'variant'
p101
S'standard'
p102
ssaa(lp103
S'atmega328'
p104
a(dp105
S'bootloader'
p106
(dp107
S'extended_fuses'
p108
S'0x05'
p109
sS'high_fuses'
p110
S'0xDA'
p111
sS'low_fuses'
p112
S'0xFF'
p113
sS'lock_bits'
p114
S'0x0F'
p115
sS'file'
p116
S'ATmegaBOOT_168_atmega328.hex'
p117
sS'path'
p118
S'atmega'
p119
sS'unlock_bits'
p120
S'0x3F'
p121
ssS'upload'
p122
(dp123
S'speed'
p124
S'57600'
p125
sS'maximum_size'
p126
S'30720'
p127
sS'protocol'
p128
S'arduino'
p129
ssS'name'
p130
S'Arduino Duemilanove w/ ATmega328'
p131
sS'build'
p132
(dp133
S'core'
p134
S'arduino'
p135
sS'mcu'
p136
S'atmega328p'
p137
sS'f_cpu'
p138
S'16000000L'
p139
sS'variant'
p140
S'standard'
p141
ssaa(lp142
S'diecimila'
p143
a(dp144
S'bootloader'
p145
(dp146
S'extended_fuses'
p147
S'0x00'
p148
sS'high_fuses'
p149
S'0xdd'
p150
sS'low_fuses'
p151
S'0xff'
p152
sS'lock_bits'
p153
S'0x0F'
p154
sS'file'
p155
S'ATmegaBOOT_168_diecimila.hex'
p156
sS'path'
p157
S'atmega'
p158
sS'unlock_bits'
p159
S'0x3F'
p160
ssS'upload'
p161
(dp162
S'speed'
p163
S'19200'
p164
sS'maximum_size'
p165
S'14336'
p166
sS'protocol'
p167
S'arduino'
p168
ssS'name'
p169
S'Arduino Diecimila or Duemilanove w/ ATmega168'
p170
sS'build'
p171
(dp172
S'core'
p173
S'arduino'
p174
sS'mcu'
p175
S'atmega168'
p176
sS'f_cpu'
p177
S'16000000L'
p178
sS'variant'
p179
S'standard'
p180
ssaa(lp181
S'nano328'
p182
a(dp183
S'bootloader'
p184
(dp185
S'extended_fuses'
p186
S'0x05'
p187
sS'high_fuses'
p188
S'0xDA'
p189
sS'low_fuses'
p190
S'0xFF'
p191
sS'lock_bits'
p192
S'0x0F'
p193
sS'file'
p194
S'ATmegaBOOT_168_atmega328.hex'
p195
sS'path'
p196
S'atmega'
p197
sS'unlock_bits'
p198
S'0x3F'
p199
ssS'upload'
p200
(dp201
S'speed'
p202
S'57600'
p203
sS'maximum_size'
p204
S'30720'
p205
sS'protocol'
p206
S'arduino'
p207
ssS'name'
p208
S'Arduino Nano w/ ATmega328'
p209
sS'build'
p210
(dp211
S'core'
p212
S'arduino'
p213
sS'mcu'
p214
S'atmega328p'
p215
sS'f_cpu'
p216
S'16000000L'
p217
sS'variant'
p218
S'eightanaloginputs'
p219
ssaa(lp220
S'nano'
p221
a(dp222
S'bootloader'
p223
(dp224
S'extended_fuses'
p225
S'0x00'
p226
sS'high_fuses'
p227
S'0xdd'
p228
sS'low_fuses'
p229
S'0xff'
p230
sS'lock_bits'
p231
S'0x0F'
p232
sS'file'
p233
S'ATmegaBOOT_168_diecimila.hex'
p234
sS'path'
p235
S'atmega'
p236
sS'unlock_bits'
p237
S'0x3F'
p238
ssS'upload'
p239
(dp240
S'speed'
p241
S'19200'
p242
sS'maximum_size'
p243
S'14336'
p244
sS'protocol'
p245
S'arduino'
p246
ssS'name'
p247
S'Arduino Nano w/ ATmega168'
p248
sS'build'
p249
(dp250
S'core'
p251
S'arduino'
p252
sS'mcu'
p253
S'atmega168'
p254
sS'f_cpu'
p255
S'16000000L'
p256
sS'variant'
p257
S'eightanaloginputs'
p258
ssaa(lp259
S'mega2560'
p260
a(dp261
S'bootloader'
p262
(dp263
S'extended_fuses'
p264
S'0xFD'
p265
sS'high_fuses'
p266
S'0xD8'
p267
sS'low_fuses'
p268
S'0xFF'
p269
sS'lock_bits'
p270
S'0x0F'
p271
sS'file'
p272
S'stk500boot_v2_mega2560.hex'
p273
sS'path'
p274
S'stk500v2'
p275
sS'unlock_bits'
p276
S'0x3F'
p277
ssS'upload'
p278
(dp279
S'speed'
p280
S'115200'
p281
sS'maximum_size'
p282
S'258048'
p283
sS'protocol'
p284
S'wiring'
p285
ssS'name'
p286
S'Arduino Mega 2560 or Mega ADK'
p287
sS'build'
p288
(dp289
S'core'
p290
S'arduino'
p291
sS'mcu'
p292
S'atmega2560'
p293
sS'f_cpu'
p294
S'16000000L'
p295
sS'variant'
p296
S'mega'
p297
ssaa(lp298
S'mega'
p299
a(dp300
S'bootloader'
p301
(dp302
S'extended_fuses'
p303
S'0xF5'
p304
sS'high_fuses'
p305
S'0xDA'
p306
sS'low_fuses'
p307
S'0xFF'
p308
sS'lock_bits'
p309
S'0x0F'
p310
sS'file'
p311
S'ATmegaBOOT_168_atmega1280.hex'
p312
sS'path'
p313
S'atmega'
p314
sS'unlock_bits'
p315
S'0x3F'
p316
ssS'upload'
p317
(dp318
S'speed'
p319
S'57600'
p320
sS'maximum_size'
p321
S'126976'
p322
sS'protocol'
p323
S'arduino'
p324
ssS'name'
p325
S'Arduino Mega (ATmega1280)'
p326
sS'build'
p327
(dp328
S'core'
p329
S'arduino'
p330
sS'mcu'
p331
S'atmega1280'
p332
sS'f_cpu'
p333
S'16000000L'
p334
sS'variant'
p335
S'mega'
p336
ssaa(lp337
S'leonardo'
p338
a(dp339
S'bootloader'
p340
(dp341
S'extended_fuses'
p342
S'0xcb'
p343
sS'high_fuses'
p344
S'0xd8'
p345
sS'low_fuses'
p346
S'0xff'
p347
sS'lock_bits'
p348
S'0x2F'
p349
sS'file'
p350
S'Caterina-Leonardo.hex'
p351
sS'path'
p352
S'caterina'
p353
sS'unlock_bits'
p354
S'0x3F'
p355
ssS'upload'
p356
(dp357
S'speed'
p358
S'57600'
p359
sS'maximum_size'
p360
S'28672'
p361
sS'protocol'
p362
S'avr109'
p363
sS'disable_flushing'
p364
S'true'
p365
ssS'name'
p366
S'Arduino Leonardo'
p367
sS'build'
p368
(dp369
S'core'
p370
S'arduino'
p371
sS'f_cpu'
p372
S'16000000L'
p373
sS'vid'
p374
S'0x2341'
p375
sS'pid'
p376
S'0x8036'
p377
sS'variant'
p378
S'leonardo'
p379
sS'mcu'
p380
S'atmega32u4'
p381
ssaa(lp382
S'esplora'
p383
a(dp384
S'bootloader'
p385
(dp386
S'extended_fuses'
p387
S'0xcb'
p388
sS'high_fuses'
p389
S'0xd8'
p390
sS'low_fuses'
p391
S'0xff'
p392
sS'lock_bits'
p393
S'0x2F'
p394
sS'file'
p395
S'Caterina-Esplora.hex'
p396
sS'path'
p397
S'caterina'
p398
sS'unlock_bits'
p399
S'0x3F'
p400
ssS'upload'
p401
(dp402
S'speed'
p403
S'57600'
p404
sS'maximum_size'
p405
S'28672'
p406
sS'protocol'
p407
S'avr109'
p408
sS'disable_flushing'
p409
S'true'
p410
ssS'name'
p411
S'Arduino Esplora'
p412
sS'build'
p413
(dp414
S'core'
p415
S'arduino'
p416
sS'f_cpu'
p417
S'16000000L'
p418
sS'vid'
p419
S'0x2341'
p420
sS'pid'
p421
S'0x803C'
p422
sS'variant'
p423
S'leonardo'
p424
sS'mcu'
p425
S'atmega32u4'
p426
ssaa(lp427
S'micro'
p428
a(dp429
S'bootloader'
p430
(dp431
S'extended_fuses'
p432
S'0xcb'
p433
sS'high_fuses'
p434
S'0xd8'
p435
sS'low_fuses'
p436
S'0xff'
p437
sS'lock_bits'
p438
S'0x2F'
p439
sS'file'
p440
S'Caterina-Micro.hex'
p441
sS'path'
p442
S'caterina'
p443
sS'unlock_bits'
p444
S'0x3F'
p445
ssS'upload'
p446
(dp447
S'speed'
p448
S'57600'
p449
sS'maximum_size'
p450
S'28672'
p451
sS'protocol'
p452
S'avr109'
p453
sS'disable_flushing'
p454
S'true'
p455
ssS'name'
p456
S'Arduino Micro'
p457
sS'build'
p458
(dp459
S'core'
p460
S'arduino'
p461
sS'f_cpu'
p462
S'16000000L'
p463
sS'vid'
p464
S'0x2341'
p465
sS'pid'
p466
S'0x8037'
p467
sS'variant'
p468
S'micro'
p469
sS'mcu'
p470
S'atmega32u4'
p471
ssaa(lp472
S'mini328'
p473
a(dp474
S'bootloader'
p475
(dp476
S'extended_fuses'
p477
S'0x05'
p478
sS'high_fuses'
p479
S'0xd8'
p480
sS'low_fuses'
p481
S'0xff'
p482
sS'lock_bits'
p483
S'0x0F'
p484
sS'file'
p485
S'optiboot_atmega328-Mini.hex'
p486
sS'path'
p487
S'optiboot'
p488
sS'unlock_bits'
p489
S'0x3F'
p490
ssS'upload'
p491
(dp492
S'speed'
p493
S'115200'
p494
sS'maximum_size'
p495
S'28672'
p496
sS'protocol'
p497
S'arduino'
p498
ssS'name'
p499
S'Arduino Mini w/ ATmega328'
p500
sS'build'
p501
(dp502
S'core'
p503
S'arduino'
p504
sS'mcu'
p505
S'atmega328p'
p506
sS'f_cpu'
p507
S'16000000L'
p508
sS'variant'
p509
S'eightanaloginputs'
p510
ssaa(lp511
S'mini'
p512
a(dp513
S'bootloader'
p514
(dp515
S'extended_fuses'
p516
S'0x00'
p517
sS'high_fuses'
p518
S'0xdd'
p519
sS'low_fuses'
p520
S'0xff'
p521
sS'lock_bits'
p522
S'0x0F'
p523
sS'file'
p524
S'ATmegaBOOT_168_ng.hex'
p525
sS'path'
p526
S'atmega'
p527
sS'unlock_bits'
p528
S'0x3F'
p529
ssS'upload'
p530
(dp531
S'speed'
p532
S'19200'
p533
sS'maximum_size'
p534
S'14336'
p535
sS'protocol'
p536
S'arduino'
p537
ssS'name'
p538
S'Arduino Mini w/ ATmega168'
p539
sS'build'
p540
(dp541
S'core'
p542
S'arduino'
p543
sS'mcu'
p544
S'atmega168'
p545
sS'f_cpu'
p546
S'16000000L'
p547
sS'variant'
p548
S'eightanaloginputs'
p549
ssaa(lp550
S'ethernet'
p551
a(dp552
S'bootloader'
p553
(dp554
S'extended_fuses'
p555
S'0x05'
p556
sS'high_fuses'
p557
S'0xde'
p558
sS'low_fuses'
p559
S'0xff'
p560
sS'lock_bits'
p561
S'0x0F'
p562
sS'file'
p563
S'optiboot_atmega328.hex'
p564
sS'path'
p565
S'optiboot'
p566
sS'unlock_bits'
p567
S'0x3F'
p568
ssS'upload'
p569
(dp570
S'speed'
p571
S'115200'
p572
sS'maximum_size'
p573
S'32256'
p574
sS'protocol'
p575
S'arduino'
p576
ssS'name'
p577
S'Arduino Ethernet'
p578
sS'build'
p579
(dp580
S'f_cpu'
p581
S'16000000L'
p582
sS'mcu'
p583
S'atmega328p'
p584
sS'variant'
p585
S'standard'
p586
sS'core'
p587
S'arduino'
p588
ssaa(lp589
S'fio'
p590
a(dp591
S'bootloader'
p592
(dp593
S'extended_fuses'
p594
S'0x05'
p595
sS'high_fuses'
p596
S'0xDA'
p597
sS'low_fuses'
p598
S'0xFF'
p599
sS'lock_bits'
p600
S'0x0F'
p601
sS'file'
p602
S'ATmegaBOOT_168_atmega328_pro_8MHz.hex'
p603
sS'path'
p604
S'arduino:atmega'
p605
sS'unlock_bits'
p606
S'0x3F'
p607
ssS'upload'
p608
(dp609
S'speed'
p610
S'57600'
p611
sS'maximum_size'
p612
S'30720'
p613
sS'protocol'
p614
S'arduino'
p615
ssS'name'
p616
S'Arduino Fio'
p617
sS'build'
p618
(dp619
S'core'
p620
S'arduino'
p621
sS'mcu'
p622
S'atmega328p'
p623
sS'f_cpu'
p624
S'8000000L'
p625
sS'variant'
p626
S'eightanaloginputs'
p627
ssaa(lp628
S'bt328'
p629
a(dp630
S'bootloader'
p631
(dp632
S'extended_fuses'
p633
S'0x05'
p634
sS'high_fuses'
p635
S'0xd8'
p636
sS'low_fuses'
p637
S'0xff'
p638
sS'lock_bits'
p639
S'0x0F'
p640
sS'file'
p641
S'ATmegaBOOT_168_atmega328_bt.hex'
p642
sS'path'
p643
S'bt'
p644
sS'unlock_bits'
p645
S'0x3F'
p646
ssS'upload'
p647
(dp648
S'speed'
p649
S'19200'
p650
sS'maximum_size'
p651
S'28672'
p652
sS'protocol'
p653
S'arduino'
p654
sS'disable_flushing'
p655
S'true'
p656
ssS'name'
p657
S'Arduino BT w/ ATmega328'
p658
sS'build'
p659
(dp660
S'core'
p661
S'arduino'
p662
sS'mcu'
p663
S'atmega328p'
p664
sS'f_cpu'
p665
S'16000000L'
p666
sS'variant'
p667
S'eightanaloginputs'
p668
ssaa(lp669
S'bt'
p670
a(dp671
S'bootloader'
p672
(dp673
S'extended_fuses'
p674
S'0x00'
p675
sS'high_fuses'
p676
S'0xdd'
p677
sS'low_fuses'
p678
S'0xff'
p679
sS'lock_bits'
p680
S'0x0F'
p681
sS'file'
p682
S'ATmegaBOOT_168.hex'
p683
sS'path'
p684
S'bt'
p685
sS'unlock_bits'
p686
S'0x3F'
p687
ssS'upload'
p688
(dp689
S'speed'
p690
S'19200'
p691
sS'maximum_size'
p692
S'14336'
p693
sS'protocol'
p694
S'arduino'
p695
sS'disable_flushing'
p696
S'true'
p697
ssS'name'
p698
S'Arduino BT w/ ATmega168'
p699
sS'build'
p700
(dp701
S'core'
p702
S'arduino'
p703
sS'mcu'
p704
S'atmega168'
p705
sS'f_cpu'
p706
S'16000000L'
p707
sS'variant'
p708
S'eightanaloginputs'
p709
ssaa(lp710
S'LilyPadUSB'
p711
a(dp712
S'bootloader'
p713
(dp714
S'extended_fuses'
p715
S'0xce'
p716
sS'high_fuses'
p717
S'0xd8'
p718
sS'low_fuses'
p719
S'0xff'
p720
sS'lock_bits'
p721
S'0x2F'
p722
sS'file'
p723
S'Caterina-LilyPadUSB.hex'
p724
sS'path'
p725
S'caterina-LilyPadUSB'
p726
sS'unlock_bits'
p727
S'0x3F'
p728
ssS'upload'
p729
(dp730
S'speed'
p731
S'57600'
p732
sS'maximum_size'
p733
S'28672'
p734
sS'protocol'
p735
S'avr109'
p736
sS'disable_flushing'
p737
S'true'
p738
ssS'name'
p739
S'LilyPad Arduino USB'
p740
sS'build'
p741
(dp742
S'core'
p743
S'arduino'
p744
sS'f_cpu'
p745
S'8000000L'
p746
sS'vid'
p747
S'0x1B4F'
p748
sS'pid'
p749
S'0x9208'
p750
sS'variant'
p751
S'leonardo'
p752
sS'mcu'
p753
S'atmega32u4'
p754
ssaa(lp755
S'lilypad328'
p756
a(dp757
S'bootloader'
p758
(dp759
S'extended_fuses'
p760
S'0x05'
p761
sS'high_fuses'
p762
S'0xDA'
p763
sS'low_fuses'
p764
S'0xFF'
p765
sS'lock_bits'
p766
S'0x0F'
p767
sS'file'
p768
S'ATmegaBOOT_168_atmega328_pro_8MHz.hex'
p769
sS'path'
p770
S'atmega'
p771
sS'unlock_bits'
p772
S'0x3F'
p773
ssS'upload'
p774
(dp775
S'speed'
p776
S'57600'
p777
sS'maximum_size'
p778
S'30720'
p779
sS'protocol'
p780
S'arduino'
p781
ssS'name'
p782
S'LilyPad Arduino w/ ATmega328'
p783
sS'build'
p784
(dp785
S'core'
p786
S'arduino'
p787
sS'mcu'
p788
S'atmega328p'
p789
sS'f_cpu'
p790
S'8000000L'
p791
sS'variant'
p792
S'standard'
p793
ssaa(lp794
S'lilypad'
p795
a(dp796
S'bootloader'
p797
(dp798
S'extended_fuses'
p799
S'0x00'
p800
sS'high_fuses'
p801
S'0xdd'
p802
sS'low_fuses'
p803
S'0xe2'
p804
sS'lock_bits'
p805
S'0x0F'
p806
sS'file'
p807
S'LilyPadBOOT_168.hex'
p808
sS'path'
p809
S'lilypad'
p810
sS'unlock_bits'
p811
S'0x3F'
p812
ssS'upload'
p813
(dp814
S'speed'
p815
S'19200'
p816
sS'maximum_size'
p817
S'14336'
p818
sS'protocol'
p819
S'arduino'
p820
ssS'name'
p821
S'LilyPad Arduino w/ ATmega168'
p822
sS'build'
p823
(dp824
S'core'
p825
S'arduino'
p826
sS'mcu'
p827
S'atmega168'
p828
sS'f_cpu'
p829
S'8000000L'
p830
sS'variant'
p831
S'standard'
p832
ssaa(lp833
S'pro5v328'
p834
a(dp835
S'bootloader'
p836
(dp837
S'extended_fuses'
p838
S'0x05'
p839
sS'high_fuses'
p840
S'0xDA'
p841
sS'low_fuses'
p842
S'0xFF'
p843
sS'lock_bits'
p844
S'0x0F'
p845
sS'file'
p846
S'ATmegaBOOT_168_atmega328.hex'
p847
sS'path'
p848
S'atmega'
p849
sS'unlock_bits'
p850
S'0x3F'
p851
ssS'upload'
p852
(dp853
S'speed'
p854
S'57600'
p855
sS'maximum_size'
p856
S'30720'
p857
sS'protocol'
p858
S'arduino'
p859
ssS'name'
p860
S'Arduino Pro or Pro Mini (5V, 16 MHz) w/ ATmega328'
p861
sS'build'
p862
(dp863
S'core'
p864
S'arduino'
p865
sS'mcu'
p866
S'atmega328p'
p867
sS'f_cpu'
p868
S'16000000L'
p869
sS'variant'
p870
S'standard'
p871
ssaa(lp872
S'pro5v'
p873
a(dp874
S'bootloader'
p875
(dp876
S'extended_fuses'
p877
S'0x00'
p878
sS'high_fuses'
p879
S'0xdd'
p880
sS'low_fuses'
p881
S'0xff'
p882
sS'lock_bits'
p883
S'0x0F'
p884
sS'file'
p885
S'ATmegaBOOT_168_diecimila.hex'
p886
sS'path'
p887
S'atmega'
p888
sS'unlock_bits'
p889
S'0x3F'
p890
ssS'upload'
p891
(dp892
S'speed'
p893
S'19200'
p894
sS'maximum_size'
p895
S'14336'
p896
sS'protocol'
p897
S'arduino'
p898
ssS'name'
p899
S'Arduino Pro or Pro Mini (5V, 16 MHz) w/ ATmega168'
p900
sS'build'
p901
(dp902
S'core'
p903
S'arduino'
p904
sS'mcu'
p905
S'atmega168'
p906
sS'f_cpu'
p907
S'16000000L'
p908
sS'variant'
p909
S'standard'
p910
ssaa(lp911
S'pro328'
p912
a(dp913
S'bootloader'
p914
(dp915
S'extended_fuses'
p916
S'0x05'
p917
sS'high_fuses'
p918
S'0xDA'
p919
sS'low_fuses'
p920
S'0xFF'
p921
sS'lock_bits'
p922
S'0x0F'
p923
sS'file'
p924
S'ATmegaBOOT_168_atmega328_pro_8MHz.hex'
p925
sS'path'
p926
S'atmega'
p927
sS'unlock_bits'
p928
S'0x3F'
p929
ssS'upload'
p930
(dp931
S'speed'
p932
S'57600'
p933
sS'maximum_size'
p934
S'30720'
p935
sS'protocol'
p936
S'arduino'
p937
ssS'name'
p938
S'Arduino Pro or Pro Mini (3.3V, 8 MHz) w/ ATmega328'
p939
sS'build'
p940
(dp941
S'core'
p942
S'arduino'
p943
sS'mcu'
p944
S'atmega328p'
p945
sS'f_cpu'
p946
S'8000000L'
p947
sS'variant'
p948
S'standard'
p949
ssaa(lp950
S'pro'
p951
a(dp952
S'bootloader'
p953
(dp954
S'extended_fuses'
p955
S'0x00'
p956
sS'high_fuses'
p957
S'0xdd'
p958
sS'low_fuses'
p959
S'0xc6'
p960
sS'lock_bits'
p961
S'0x0F'
p962
sS'file'
p963
S'ATmegaBOOT_168_pro_8MHz.hex'
p964
sS'path'
p965
S'atmega'
p966
sS'unlock_bits'
p967
S'0x3F'
p968
ssS'upload'
p969
(dp970
S'speed'
p971
S'19200'
p972
sS'maximum_size'
p973
S'14336'
p974
sS'protocol'
p975
S'arduino'
p976
ssS'name'
p977
S'Arduino Pro or Pro Mini (3.3V, 8 MHz) w/ ATmega168'
p978
sS'build'
p979
(dp980
S'core'
p981
S'arduino'
p982
sS'mcu'
p983
S'atmega168'
p984
sS'f_cpu'
p985
S'8000000L'
p986
sS'variant'
p987
S'standard'
p988
ssaa(lp989
S'atmega168'
p990
a(dp991
S'bootloader'
p992
(dp993
S'extended_fuses'
p994
S'0x00'
p995
sS'high_fuses'
p996
S'0xdd'
p997
sS'low_fuses'
p998
S'0xff'
p999
sS'lock_bits'
p1000
S'0x0F'
p1001
sS'file'
p1002
S'ATmegaBOOT_168_ng.hex'
p1003
sS'path'
p1004
S'atmega'
p1005
sS'unlock_bits'
p1006
S'0x3F'
p1007
ssS'upload'
p1008
(dp1009
S'speed'
p1010
S'19200'
p1011
sS'maximum_size'
p1012
S'14336'
p1013
sS'protocol'
p1014
S'arduino'
p1015
ssS'name'
p1016
S'Arduino NG or older w/ ATmega168'
p1017
sS'build'
p1018
(dp1019
S'core'
p1020
S'arduino'
p1021
sS'mcu'
p1022
S'atmega168'
p1023
sS'f_cpu'
p1024
S'16000000L'
p1025
sS'variant'
p1026
S'standard'
p1027
ssaa(lp1028
S'atmega8'
p1029
a(dp1030
S'bootloader'
p1031
(dp1032
S'high_fuses'
p1033
S'0xca'
p1034
sS'low_fuses'
p1035
S'0xdf'
p1036
sS'lock_bits'
p1037
S'0x0F'
p1038
sS'file'
p1039
S'ATmegaBOOT-prod-firmware-2009-11-07.hex'
p1040
sS'path'
p1041
S'atmega8'
p1042
sS'unlock_bits'
p1043
S'0x3F'
p1044
ssS'upload'
p1045
(dp1046
S'speed'
p1047
S'19200'
p1048
sS'maximum_size'
p1049
S'7168'
p1050
sS'protocol'
p1051
S'arduino'
p1052
ssS'name'
p1053
S'Arduino NG or older w/ ATmega8'
p1054
sS'build'
p1055
(dp1056
S'core'
p1057
S'arduino'
p1058
sS'mcu'
p1059
S'atmega8'
p1060
sS'f_cpu'
p1061
S'16000000L'
p1062
sS'variant'
p1063
S'standard'
p1064
ssaa(lp1065
S'robotControl'
p1066
a(dp1067
S'bootloader'
p1068
(dp1069
S'extended_fuses'
p1070
S'0xcb'
p1071
sS'high_fuses'
p1072
S'0xd8'
p1073
sS'low_fuses'
p1074
S'0xff'
p1075
sS'lock_bits'
p1076
S'0x2F'
p1077
sS'file'
p1078
S'Caterina-Robot-Control.hex'
p1079
sS'path'
p1080
S'caterina-Arduino_Robot'
p1081
sS'unlock_bits'
p1082
S'0x3F'
p1083
ssS'upload'
p1084
(dp1085
S'speed'
p1086
S'57600'
p1087
sS'maximum_size'
p1088
S'28672'
p1089
sS'protocol'
p1090
S'avr109'
p1091
sS'disable_flushing'
p1092
S'true'
p1093
ssS'name'
p1094
S'Arduino Robot Control'
p1095
sS'build'
p1096
(dp1097
S'core'
p1098
S'robot'
p1099
sS'f_cpu'
p1100
S'16000000L'
p1101
sS'vid'
p1102
S'0x2341'
p1103
sS'pid'
p1104
S'0x8038'
p1105
sS'variant'
p1106
S'robot_control'
p1107
sS'mcu'
p1108
S'atmega32u4'
p1109
ssaa(lp1110
S'robotMotor'
p1111
a(dp1112
S'bootloader'
p1113
(dp1114
S'extended_fuses'
p1115
S'0xcb'
p1116
sS'high_fuses'
p1117
S'0xd8'
p1118
sS'low_fuses'
p1119
S'0xff'
p1120
sS'lock_bits'
p1121
S'0x2F'
p1122
sS'file'
p1123
S'Caterina-Robot-Motor.hex'
p1124
sS'path'
p1125
S'caterina-Arduino_Robot'
p1126
sS'unlock_bits'
p1127
S'0x3F'
p1128
ssS'upload'
p1129
(dp1130
S'speed'
p1131
S'57600'
p1132
sS'maximum_size'
p1133
S'28672'
p1134
sS'protocol'
p1135
S'avr109'
p1136
sS'disable_flushing'
p1137
S'true'
p1138
ssS'name'
p1139
S'Arduino Robot Motor'
p1140
sS'build'
p1141
(dp1142
S'core'
p1143
S'robot'
p1144
sS'f_cpu'
p1145
S'16000000L'
p1146
sS'vid'
p1147
S'0x2341'
p1148
sS'pid'
p1149
S'0x8039'
p1150
sS'variant'
p1151
S'robot_motor'
p1152
sS'mcu'
p1153
S'atmega32u4'
p1154
ssaatp1155
Rp1156
(dp1157
S'default'
p1158
S'uno'
p1159
sbtp1160
a(S'used_libs'
p1161
(lp1162
S'/Applications/Arduino.app/Contents/Resources/Java/hardware/arduino/cores/arduino'
p1163
atp1164
a(S'make'
p1165
S'/Applications/Arduino.app/Contents/Resources/Java/hardware/tools/avr/bin/make'
p1166
tp1167
a(S'arduino_libraries_dir'
p1168
S'/Applications/Arduino.app/Contents/Resources/Java/libraries'
p1169
tp1170
a(S'cc'
p1171
S'/Applications/Arduino.app/Contents/Resources/Java/hardware/tools/avr/bin/avr-gcc'
p1172
tp1173
a(S'cflags'
p1174
g2
(g3
g4
(lp1175
tp1176
Rp1177
tp1178
a(S'cxxflags'
p1179
g2
(g3
g4
(lp1180
S'-fno-exceptions'
p1181
atp1182
Rp1183
tp1184
a(S'arduino_variants_dir'
p1185
S'/Applications/Arduino.app/Contents/Resources/Java/hardware/arduino/variants'
p1186
tp1187
a(S'stty'
p1188
S'/bin/stty'
p1189
tp1190
a(S'version.txt'
p1191
S'/Applications/Arduino.app/Contents/Resources/Java/lib/version.txt'
p1192
tp1193
a(S'arduino_core_dir'
p1194
g1163
tp1195
a(S'boards.txt'
p1196
S'/Applications/Arduino.app/Contents/Resources/Java/hardware/arduino/boards.txt'
p1197
tp1198
a(S'avrdude.conf'
p1199
S'/Applications/Arduino.app/Contents/Resources/Java/hardware/tools/avr/etc/avrdude.conf'
p1200
tp1201
a(S'deps'
p1202
g2
(g3
g4
(lp1203
S'.build/uno/src/dependencies.d'
p1204
aS'.build/uno/arduino/dependencies.d'
p1205
atp1206
Rp1207
tp1208
a.