(lp0
(S'cppflags'
p1
ccopy_reg
_reconstructor
p2
(cino.utils
SpaceList
p3
c__builtin__
list
p4
(lp5
S'-mmcu=atmega328p'
p6
aS'-DF_CPU=16000000L'
p7
aS'-DARDUINO=105'
p8
aS'-I/Applications/Arduino.app/Contents/Resources/Java/hardware/arduino/cores/arduino'
p9
aS'-ffunction-sections'
p10
aS'-fdata-sections'
p11
aS'-g'
p12
aS'-Os'
p13
aS'-w'
p14
aS'-I/Applications/Arduino.app/Contents/Resources/Java/hardware/arduino/variants/standard'
p15
aS'-I/Applications/Arduino.app/Contents/Resources/Java/hardware/arduino/cores/arduino'
p16
aS'-I/Applications/Arduino.app/Contents/Resources/Java/hardware/arduino/cores/arduino/avr-libc'
p17
atp18
Rp19
tp20
a(S'cxx'
p21
S'/Applications/Arduino.app/Contents/Resources/Java/hardware/tools/avr/bin/avr-g++'
p22
tp23
a(S'arduino_libraries_dir'
p24
S'/Applications/Arduino.app/Contents/Resources/Java/libraries'
p25
tp26
a(S'avrdude'
p27
S'/Applications/Arduino.app/Contents/Resources/Java/hardware/tools/avr/bin/avrdude'
p28
tp29
a(S'ar'
p30
S'/Applications/Arduino.app/Contents/Resources/Java/hardware/tools/avr/bin/avr-ar'
p31
tp32
a(S'names'
p33
(dp34
S'cpp'
p35
S'%s.cpp'
p36
sS'obj'
p37
S'%s.o'
p38
sS'deps'
p39
S'%s.d'
p40
sS'lib'
p41
S'lib%s.a'
p42
stp43
a(S'ldflags'
p44
g2
(g3
g4
(lp45
g6
aS'-Wl,-Os'
p46
aS'-Wl,--gc-sections'
p47
atp48
Rp49
tp50
a(S'arduino_lib_version'
p51
g2
(cino.environment
Version
p52
c__builtin__
tuple
p53
(I1
I0
I5
tp54
tp55
Rp56
tp57
a(S'objcopy'
p58
S'/Applications/Arduino.app/Contents/Resources/Java/hardware/tools/avr/bin/avr-objcopy'
p59
tp60
a(S'board_models'
p61
cino.environment
BoardModels
p62
((lp63
(lp64
S'uno'
p65
a(dp66
S'bootloader'
p67
(dp68
S'extended_fuses'
p69
S'0x05'
p70
sS'high_fuses'
p71
S'0xde'
p72
sS'low_fuses'
p73
S'0xff'
p74
sS'lock_bits'
p75
S'0x0F'
p76
sS'file'
p77
S'optiboot_atmega328.hex'
p78
sS'path'
p79
S'optiboot'
p80
sS'unlock_bits'
p81
S'0x3F'
p82
ssS'upload'
p83
(dp84
S'protocol'
p85
S'arduino'
p86
sS'maximum_size'
p87
S'32256'
p88
sS'speed'
p89
S'115200'
p90
ssS'build'
p91
(dp92
S'core'
p93
S'arduino'
p94
sS'mcu'
p95
S'atmega328p'
p96
sS'f_cpu'
p97
S'16000000L'
p98
sS'variant'
p99
S'standard'
p100
ssS'name'
p101
S'Arduino Uno'
p102
saa(lp103
S'atmega328'
p104
a(dp105
S'bootloader'
p106
(dp107
S'extended_fuses'
p108
S'0x05'
p109
sS'high_fuses'
p110
S'0xDA'
p111
sS'low_fuses'
p112
S'0xFF'
p113
sS'lock_bits'
p114
S'0x0F'
p115
sS'file'
p116
S'ATmegaBOOT_168_atmega328.hex'
p117
sS'path'
p118
S'atmega'
p119
sS'unlock_bits'
p120
S'0x3F'
p121
ssS'upload'
p122
(dp123
S'protocol'
p124
S'arduino'
p125
sS'maximum_size'
p126
S'30720'
p127
sS'speed'
p128
S'57600'
p129
ssS'build'
p130
(dp131
S'core'
p132
S'arduino'
p133
sS'mcu'
p134
S'atmega328p'
p135
sS'f_cpu'
p136
S'16000000L'
p137
sS'variant'
p138
S'standard'
p139
ssS'name'
p140
S'Arduino Duemilanove w/ ATmega328'
p141
saa(lp142
S'diecimila'
p143
a(dp144
S'bootloader'
p145
(dp146
S'extended_fuses'
p147
S'0x00'
p148
sS'high_fuses'
p149
S'0xdd'
p150
sS'low_fuses'
p151
S'0xff'
p152
sS'lock_bits'
p153
S'0x0F'
p154
sS'file'
p155
S'ATmegaBOOT_168_diecimila.hex'
p156
sS'path'
p157
S'atmega'
p158
sS'unlock_bits'
p159
S'0x3F'
p160
ssS'upload'
p161
(dp162
S'protocol'
p163
S'arduino'
p164
sS'maximum_size'
p165
S'14336'
p166
sS'speed'
p167
S'19200'
p168
ssS'build'
p169
(dp170
S'core'
p171
S'arduino'
p172
sS'mcu'
p173
S'atmega168'
p174
sS'f_cpu'
p175
S'16000000L'
p176
sS'variant'
p177
S'standard'
p178
ssS'name'
p179
S'Arduino Diecimila or Duemilanove w/ ATmega168'
p180
saa(lp181
S'nano328'
p182
a(dp183
S'bootloader'
p184
(dp185
S'extended_fuses'
p186
S'0x05'
p187
sS'high_fuses'
p188
S'0xDA'
p189
sS'low_fuses'
p190
S'0xFF'
p191
sS'lock_bits'
p192
S'0x0F'
p193
sS'file'
p194
S'ATmegaBOOT_168_atmega328.hex'
p195
sS'path'
p196
S'atmega'
p197
sS'unlock_bits'
p198
S'0x3F'
p199
ssS'upload'
p200
(dp201
S'protocol'
p202
S'arduino'
p203
sS'maximum_size'
p204
S'30720'
p205
sS'speed'
p206
S'57600'
p207
ssS'build'
p208
(dp209
S'core'
p210
S'arduino'
p211
sS'mcu'
p212
S'atmega328p'
p213
sS'f_cpu'
p214
S'16000000L'
p215
sS'variant'
p216
S'eightanaloginputs'
p217
ssS'name'
p218
S'Arduino Nano w/ ATmega328'
p219
saa(lp220
S'nano'
p221
a(dp222
S'bootloader'
p223
(dp224
S'extended_fuses'
p225
S'0x00'
p226
sS'high_fuses'
p227
S'0xdd'
p228
sS'low_fuses'
p229
S'0xff'
p230
sS'lock_bits'
p231
S'0x0F'
p232
sS'file'
p233
S'ATmegaBOOT_168_diecimila.hex'
p234
sS'path'
p235
S'atmega'
p236
sS'unlock_bits'
p237
S'0x3F'
p238
ssS'upload'
p239
(dp240
S'protocol'
p241
S'arduino'
p242
sS'maximum_size'
p243
S'14336'
p244
sS'speed'
p245
S'19200'
p246
ssS'build'
p247
(dp248
S'core'
p249
S'arduino'
p250
sS'mcu'
p251
S'atmega168'
p252
sS'f_cpu'
p253
S'16000000L'
p254
sS'variant'
p255
S'eightanaloginputs'
p256
ssS'name'
p257
S'Arduino Nano w/ ATmega168'
p258
saa(lp259
S'mega2560'
p260
a(dp261
S'bootloader'
p262
(dp263
S'extended_fuses'
p264
S'0xFD'
p265
sS'high_fuses'
p266
S'0xD8'
p267
sS'low_fuses'
p268
S'0xFF'
p269
sS'lock_bits'
p270
S'0x0F'
p271
sS'file'
p272
S'stk500boot_v2_mega2560.hex'
p273
sS'path'
p274
S'stk500v2'
p275
sS'unlock_bits'
p276
S'0x3F'
p277
ssS'upload'
p278
(dp279
S'protocol'
p280
S'wiring'
p281
sS'maximum_size'
p282
S'258048'
p283
sS'speed'
p284
S'115200'
p285
ssS'build'
p286
(dp287
S'core'
p288
S'arduino'
p289
sS'mcu'
p290
S'atmega2560'
p291
sS'f_cpu'
p292
S'16000000L'
p293
sS'variant'
p294
S'mega'
p295
ssS'name'
p296
S'Arduino Mega 2560 or Mega ADK'
p297
saa(lp298
S'mega'
p299
a(dp300
S'bootloader'
p301
(dp302
S'extended_fuses'
p303
S'0xF5'
p304
sS'high_fuses'
p305
S'0xDA'
p306
sS'low_fuses'
p307
S'0xFF'
p308
sS'lock_bits'
p309
S'0x0F'
p310
sS'file'
p311
S'ATmegaBOOT_168_atmega1280.hex'
p312
sS'path'
p313
S'atmega'
p314
sS'unlock_bits'
p315
S'0x3F'
p316
ssS'upload'
p317
(dp318
S'protocol'
p319
S'arduino'
p320
sS'maximum_size'
p321
S'126976'
p322
sS'speed'
p323
S'57600'
p324
ssS'build'
p325
(dp326
S'core'
p327
S'arduino'
p328
sS'mcu'
p329
S'atmega1280'
p330
sS'f_cpu'
p331
S'16000000L'
p332
sS'variant'
p333
S'mega'
p334
ssS'name'
p335
S'Arduino Mega (ATmega1280)'
p336
saa(lp337
S'leonardo'
p338
a(dp339
S'bootloader'
p340
(dp341
S'extended_fuses'
p342
S'0xcb'
p343
sS'high_fuses'
p344
S'0xd8'
p345
sS'low_fuses'
p346
S'0xff'
p347
sS'lock_bits'
p348
S'0x2F'
p349
sS'file'
p350
S'Caterina-Leonardo.hex'
p351
sS'path'
p352
S'caterina'
p353
sS'unlock_bits'
p354
S'0x3F'
p355
ssS'upload'
p356
(dp357
S'protocol'
p358
S'avr109'
p359
sS'maximum_size'
p360
S'28672'
p361
sS'speed'
p362
S'57600'
p363
sS'disable_flushing'
p364
S'true'
p365
ssS'build'
p366
(dp367
S'core'
p368
S'arduino'
p369
sS'f_cpu'
p370
S'16000000L'
p371
sS'vid'
p372
S'0x2341'
p373
sS'pid'
p374
S'0x8036'
p375
sS'variant'
p376
S'leonardo'
p377
sS'mcu'
p378
S'atmega32u4'
p379
ssS'name'
p380
S'Arduino Leonardo'
p381
saa(lp382
S'esplora'
p383
a(dp384
S'bootloader'
p385
(dp386
S'extended_fuses'
p387
S'0xcb'
p388
sS'high_fuses'
p389
S'0xd8'
p390
sS'low_fuses'
p391
S'0xff'
p392
sS'lock_bits'
p393
S'0x2F'
p394
sS'file'
p395
S'Caterina-Esplora.hex'
p396
sS'path'
p397
S'caterina'
p398
sS'unlock_bits'
p399
S'0x3F'
p400
ssS'upload'
p401
(dp402
S'protocol'
p403
S'avr109'
p404
sS'maximum_size'
p405
S'28672'
p406
sS'speed'
p407
S'57600'
p408
sS'disable_flushing'
p409
S'true'
p410
ssS'build'
p411
(dp412
S'core'
p413
S'arduino'
p414
sS'f_cpu'
p415
S'16000000L'
p416
sS'vid'
p417
S'0x2341'
p418
sS'pid'
p419
S'0x803C'
p420
sS'variant'
p421
S'leonardo'
p422
sS'mcu'
p423
S'atmega32u4'
p424
ssS'name'
p425
S'Arduino Esplora'
p426
saa(lp427
S'micro'
p428
a(dp429
S'bootloader'
p430
(dp431
S'extended_fuses'
p432
S'0xcb'
p433
sS'high_fuses'
p434
S'0xd8'
p435
sS'low_fuses'
p436
S'0xff'
p437
sS'lock_bits'
p438
S'0x2F'
p439
sS'file'
p440
S'Caterina-Micro.hex'
p441
sS'path'
p442
S'caterina'
p443
sS'unlock_bits'
p444
S'0x3F'
p445
ssS'upload'
p446
(dp447
S'protocol'
p448
S'avr109'
p449
sS'maximum_size'
p450
S'28672'
p451
sS'speed'
p452
S'57600'
p453
sS'disable_flushing'
p454
S'true'
p455
ssS'build'
p456
(dp457
S'core'
p458
S'arduino'
p459
sS'f_cpu'
p460
S'16000000L'
p461
sS'vid'
p462
S'0x2341'
p463
sS'pid'
p464
S'0x8037'
p465
sS'variant'
p466
S'micro'
p467
sS'mcu'
p468
S'atmega32u4'
p469
ssS'name'
p470
S'Arduino Micro'
p471
saa(lp472
S'mini328'
p473
a(dp474
S'bootloader'
p475
(dp476
S'extended_fuses'
p477
S'0x05'
p478
sS'high_fuses'
p479
S'0xd8'
p480
sS'low_fuses'
p481
S'0xff'
p482
sS'lock_bits'
p483
S'0x0F'
p484
sS'file'
p485
S'optiboot_atmega328-Mini.hex'
p486
sS'path'
p487
S'optiboot'
p488
sS'unlock_bits'
p489
S'0x3F'
p490
ssS'upload'
p491
(dp492
S'protocol'
p493
S'arduino'
p494
sS'maximum_size'
p495
S'28672'
p496
sS'speed'
p497
S'115200'
p498
ssS'build'
p499
(dp500
S'core'
p501
S'arduino'
p502
sS'mcu'
p503
S'atmega328p'
p504
sS'f_cpu'
p505
S'16000000L'
p506
sS'variant'
p507
S'eightanaloginputs'
p508
ssS'name'
p509
S'Arduino Mini w/ ATmega328'
p510
saa(lp511
S'mini'
p512
a(dp513
S'bootloader'
p514
(dp515
S'extended_fuses'
p516
S'0x00'
p517
sS'high_fuses'
p518
S'0xdd'
p519
sS'low_fuses'
p520
S'0xff'
p521
sS'lock_bits'
p522
S'0x0F'
p523
sS'file'
p524
S'ATmegaBOOT_168_ng.hex'
p525
sS'path'
p526
S'atmega'
p527
sS'unlock_bits'
p528
S'0x3F'
p529
ssS'upload'
p530
(dp531
S'protocol'
p532
S'arduino'
p533
sS'maximum_size'
p534
S'14336'
p535
sS'speed'
p536
S'19200'
p537
ssS'build'
p538
(dp539
S'core'
p540
S'arduino'
p541
sS'mcu'
p542
S'atmega168'
p543
sS'f_cpu'
p544
S'16000000L'
p545
sS'variant'
p546
S'eightanaloginputs'
p547
ssS'name'
p548
S'Arduino Mini w/ ATmega168'
p549
saa(lp550
S'ethernet'
p551
a(dp552
S'bootloader'
p553
(dp554
S'extended_fuses'
p555
S'0x05'
p556
sS'high_fuses'
p557
S'0xde'
p558
sS'low_fuses'
p559
S'0xff'
p560
sS'lock_bits'
p561
S'0x0F'
p562
sS'file'
p563
S'optiboot_atmega328.hex'
p564
sS'path'
p565
S'optiboot'
p566
sS'unlock_bits'
p567
S'0x3F'
p568
ssS'upload'
p569
(dp570
S'protocol'
p571
S'arduino'
p572
sS'maximum_size'
p573
S'32256'
p574
sS'speed'
p575
S'115200'
p576
ssS'build'
p577
(dp578
S'variant'
p579
S'standard'
p580
sS'mcu'
p581
S'atmega328p'
p582
sS'f_cpu'
p583
S'16000000L'
p584
sS'core'
p585
S'arduino'
p586
ssS'name'
p587
S'Arduino Ethernet'
p588
saa(lp589
S'fio'
p590
a(dp591
S'bootloader'
p592
(dp593
S'extended_fuses'
p594
S'0x05'
p595
sS'high_fuses'
p596
S'0xDA'
p597
sS'low_fuses'
p598
S'0xFF'
p599
sS'lock_bits'
p600
S'0x0F'
p601
sS'file'
p602
S'ATmegaBOOT_168_atmega328_pro_8MHz.hex'
p603
sS'path'
p604
S'arduino:atmega'
p605
sS'unlock_bits'
p606
S'0x3F'
p607
ssS'upload'
p608
(dp609
S'protocol'
p610
S'arduino'
p611
sS'maximum_size'
p612
S'30720'
p613
sS'speed'
p614
S'57600'
p615
ssS'build'
p616
(dp617
S'core'
p618
S'arduino'
p619
sS'mcu'
p620
S'atmega328p'
p621
sS'f_cpu'
p622
S'8000000L'
p623
sS'variant'
p624
S'eightanaloginputs'
p625
ssS'name'
p626
S'Arduino Fio'
p627
saa(lp628
S'bt328'
p629
a(dp630
S'bootloader'
p631
(dp632
S'extended_fuses'
p633
S'0x05'
p634
sS'high_fuses'
p635
S'0xd8'
p636
sS'low_fuses'
p637
S'0xff'
p638
sS'lock_bits'
p639
S'0x0F'
p640
sS'file'
p641
S'ATmegaBOOT_168_atmega328_bt.hex'
p642
sS'path'
p643
S'bt'
p644
sS'unlock_bits'
p645
S'0x3F'
p646
ssS'upload'
p647
(dp648
S'protocol'
p649
S'arduino'
p650
sS'maximum_size'
p651
S'28672'
p652
sS'speed'
p653
S'19200'
p654
sS'disable_flushing'
p655
S'true'
p656
ssS'build'
p657
(dp658
S'core'
p659
S'arduino'
p660
sS'mcu'
p661
S'atmega328p'
p662
sS'f_cpu'
p663
S'16000000L'
p664
sS'variant'
p665
S'eightanaloginputs'
p666
ssS'name'
p667
S'Arduino BT w/ ATmega328'
p668
saa(lp669
S'bt'
p670
a(dp671
S'bootloader'
p672
(dp673
S'extended_fuses'
p674
S'0x00'
p675
sS'high_fuses'
p676
S'0xdd'
p677
sS'low_fuses'
p678
S'0xff'
p679
sS'lock_bits'
p680
S'0x0F'
p681
sS'file'
p682
S'ATmegaBOOT_168.hex'
p683
sS'path'
p684
S'bt'
p685
sS'unlock_bits'
p686
S'0x3F'
p687
ssS'upload'
p688
(dp689
S'protocol'
p690
S'arduino'
p691
sS'maximum_size'
p692
S'14336'
p693
sS'speed'
p694
S'19200'
p695
sS'disable_flushing'
p696
S'true'
p697
ssS'build'
p698
(dp699
S'core'
p700
S'arduino'
p701
sS'mcu'
p702
S'atmega168'
p703
sS'f_cpu'
p704
S'16000000L'
p705
sS'variant'
p706
S'eightanaloginputs'
p707
ssS'name'
p708
S'Arduino BT w/ ATmega168'
p709
saa(lp710
S'LilyPadUSB'
p711
a(dp712
S'bootloader'
p713
(dp714
S'extended_fuses'
p715
S'0xce'
p716
sS'high_fuses'
p717
S'0xd8'
p718
sS'low_fuses'
p719
S'0xff'
p720
sS'lock_bits'
p721
S'0x2F'
p722
sS'file'
p723
S'Caterina-LilyPadUSB.hex'
p724
sS'path'
p725
S'caterina-LilyPadUSB'
p726
sS'unlock_bits'
p727
S'0x3F'
p728
ssS'upload'
p729
(dp730
S'protocol'
p731
S'avr109'
p732
sS'maximum_size'
p733
S'28672'
p734
sS'speed'
p735
S'57600'
p736
sS'disable_flushing'
p737
S'true'
p738
ssS'build'
p739
(dp740
S'core'
p741
S'arduino'
p742
sS'f_cpu'
p743
S'8000000L'
p744
sS'vid'
p745
S'0x1B4F'
p746
sS'pid'
p747
S'0x9208'
p748
sS'variant'
p749
S'leonardo'
p750
sS'mcu'
p751
S'atmega32u4'
p752
ssS'name'
p753
S'LilyPad Arduino USB'
p754
saa(lp755
S'lilypad328'
p756
a(dp757
S'bootloader'
p758
(dp759
S'extended_fuses'
p760
S'0x05'
p761
sS'high_fuses'
p762
S'0xDA'
p763
sS'low_fuses'
p764
S'0xFF'
p765
sS'lock_bits'
p766
S'0x0F'
p767
sS'file'
p768
S'ATmegaBOOT_168_atmega328_pro_8MHz.hex'
p769
sS'path'
p770
S'atmega'
p771
sS'unlock_bits'
p772
S'0x3F'
p773
ssS'upload'
p774
(dp775
S'protocol'
p776
S'arduino'
p777
sS'maximum_size'
p778
S'30720'
p779
sS'speed'
p780
S'57600'
p781
ssS'build'
p782
(dp783
S'core'
p784
S'arduino'
p785
sS'mcu'
p786
S'atmega328p'
p787
sS'f_cpu'
p788
S'8000000L'
p789
sS'variant'
p790
S'standard'
p791
ssS'name'
p792
S'LilyPad Arduino w/ ATmega328'
p793
saa(lp794
S'lilypad'
p795
a(dp796
S'bootloader'
p797
(dp798
S'extended_fuses'
p799
S'0x00'
p800
sS'high_fuses'
p801
S'0xdd'
p802
sS'low_fuses'
p803
S'0xe2'
p804
sS'lock_bits'
p805
S'0x0F'
p806
sS'file'
p807
S'LilyPadBOOT_168.hex'
p808
sS'path'
p809
S'lilypad'
p810
sS'unlock_bits'
p811
S'0x3F'
p812
ssS'upload'
p813
(dp814
S'protocol'
p815
S'arduino'
p816
sS'maximum_size'
p817
S'14336'
p818
sS'speed'
p819
S'19200'
p820
ssS'build'
p821
(dp822
S'core'
p823
S'arduino'
p824
sS'mcu'
p825
S'atmega168'
p826
sS'f_cpu'
p827
S'8000000L'
p828
sS'variant'
p829
S'standard'
p830
ssS'name'
p831
S'LilyPad Arduino w/ ATmega168'
p832
saa(lp833
S'pro5v328'
p834
a(dp835
S'bootloader'
p836
(dp837
S'extended_fuses'
p838
S'0x05'
p839
sS'high_fuses'
p840
S'0xDA'
p841
sS'low_fuses'
p842
S'0xFF'
p843
sS'lock_bits'
p844
S'0x0F'
p845
sS'file'
p846
S'ATmegaBOOT_168_atmega328.hex'
p847
sS'path'
p848
S'atmega'
p849
sS'unlock_bits'
p850
S'0x3F'
p851
ssS'upload'
p852
(dp853
S'protocol'
p854
S'arduino'
p855
sS'maximum_size'
p856
S'30720'
p857
sS'speed'
p858
S'57600'
p859
ssS'build'
p860
(dp861
S'core'
p862
S'arduino'
p863
sS'mcu'
p864
S'atmega328p'
p865
sS'f_cpu'
p866
S'16000000L'
p867
sS'variant'
p868
S'standard'
p869
ssS'name'
p870
S'Arduino Pro or Pro Mini (5V, 16 MHz) w/ ATmega328'
p871
saa(lp872
S'pro5v'
p873
a(dp874
S'bootloader'
p875
(dp876
S'extended_fuses'
p877
S'0x00'
p878
sS'high_fuses'
p879
S'0xdd'
p880
sS'low_fuses'
p881
S'0xff'
p882
sS'lock_bits'
p883
S'0x0F'
p884
sS'file'
p885
S'ATmegaBOOT_168_diecimila.hex'
p886
sS'path'
p887
S'atmega'
p888
sS'unlock_bits'
p889
S'0x3F'
p890
ssS'upload'
p891
(dp892
S'protocol'
p893
S'arduino'
p894
sS'maximum_size'
p895
S'14336'
p896
sS'speed'
p897
S'19200'
p898
ssS'build'
p899
(dp900
S'core'
p901
S'arduino'
p902
sS'mcu'
p903
S'atmega168'
p904
sS'f_cpu'
p905
S'16000000L'
p906
sS'variant'
p907
S'standard'
p908
ssS'name'
p909
S'Arduino Pro or Pro Mini (5V, 16 MHz) w/ ATmega168'
p910
saa(lp911
S'pro328'
p912
a(dp913
S'bootloader'
p914
(dp915
S'extended_fuses'
p916
S'0x05'
p917
sS'high_fuses'
p918
S'0xDA'
p919
sS'low_fuses'
p920
S'0xFF'
p921
sS'lock_bits'
p922
S'0x0F'
p923
sS'file'
p924
S'ATmegaBOOT_168_atmega328_pro_8MHz.hex'
p925
sS'path'
p926
S'atmega'
p927
sS'unlock_bits'
p928
S'0x3F'
p929
ssS'upload'
p930
(dp931
S'protocol'
p932
S'arduino'
p933
sS'maximum_size'
p934
S'30720'
p935
sS'speed'
p936
S'57600'
p937
ssS'build'
p938
(dp939
S'core'
p940
S'arduino'
p941
sS'mcu'
p942
S'atmega328p'
p943
sS'f_cpu'
p944
S'8000000L'
p945
sS'variant'
p946
S'standard'
p947
ssS'name'
p948
S'Arduino Pro or Pro Mini (3.3V, 8 MHz) w/ ATmega328'
p949
saa(lp950
S'pro'
p951
a(dp952
S'bootloader'
p953
(dp954
S'extended_fuses'
p955
S'0x00'
p956
sS'high_fuses'
p957
S'0xdd'
p958
sS'low_fuses'
p959
S'0xc6'
p960
sS'lock_bits'
p961
S'0x0F'
p962
sS'file'
p963
S'ATmegaBOOT_168_pro_8MHz.hex'
p964
sS'path'
p965
S'atmega'
p966
sS'unlock_bits'
p967
S'0x3F'
p968
ssS'upload'
p969
(dp970
S'protocol'
p971
S'arduino'
p972
sS'maximum_size'
p973
S'14336'
p974
sS'speed'
p975
S'19200'
p976
ssS'build'
p977
(dp978
S'core'
p979
S'arduino'
p980
sS'mcu'
p981
S'atmega168'
p982
sS'f_cpu'
p983
S'8000000L'
p984
sS'variant'
p985
S'standard'
p986
ssS'name'
p987
S'Arduino Pro or Pro Mini (3.3V, 8 MHz) w/ ATmega168'
p988
saa(lp989
S'atmega168'
p990
a(dp991
S'bootloader'
p992
(dp993
S'extended_fuses'
p994
S'0x00'
p995
sS'high_fuses'
p996
S'0xdd'
p997
sS'low_fuses'
p998
S'0xff'
p999
sS'lock_bits'
p1000
S'0x0F'
p1001
sS'file'
p1002
S'ATmegaBOOT_168_ng.hex'
p1003
sS'path'
p1004
S'atmega'
p1005
sS'unlock_bits'
p1006
S'0x3F'
p1007
ssS'upload'
p1008
(dp1009
S'protocol'
p1010
S'arduino'
p1011
sS'maximum_size'
p1012
S'14336'
p1013
sS'speed'
p1014
S'19200'
p1015
ssS'build'
p1016
(dp1017
S'core'
p1018
S'arduino'
p1019
sS'mcu'
p1020
S'atmega168'
p1021
sS'f_cpu'
p1022
S'16000000L'
p1023
sS'variant'
p1024
S'standard'
p1025
ssS'name'
p1026
S'Arduino NG or older w/ ATmega168'
p1027
saa(lp1028
S'atmega8'
p1029
a(dp1030
S'bootloader'
p1031
(dp1032
S'high_fuses'
p1033
S'0xca'
p1034
sS'low_fuses'
p1035
S'0xdf'
p1036
sS'lock_bits'
p1037
S'0x0F'
p1038
sS'file'
p1039
S'ATmegaBOOT-prod-firmware-2009-11-07.hex'
p1040
sS'path'
p1041
S'atmega8'
p1042
sS'unlock_bits'
p1043
S'0x3F'
p1044
ssS'upload'
p1045
(dp1046
S'protocol'
p1047
S'arduino'
p1048
sS'maximum_size'
p1049
S'7168'
p1050
sS'speed'
p1051
S'19200'
p1052
ssS'build'
p1053
(dp1054
S'core'
p1055
S'arduino'
p1056
sS'mcu'
p1057
S'atmega8'
p1058
sS'f_cpu'
p1059
S'16000000L'
p1060
sS'variant'
p1061
S'standard'
p1062
ssS'name'
p1063
S'Arduino NG or older w/ ATmega8'
p1064
saa(lp1065
S'robotControl'
p1066
a(dp1067
S'bootloader'
p1068
(dp1069
S'extended_fuses'
p1070
S'0xcb'
p1071
sS'high_fuses'
p1072
S'0xd8'
p1073
sS'low_fuses'
p1074
S'0xff'
p1075
sS'lock_bits'
p1076
S'0x2F'
p1077
sS'file'
p1078
S'Caterina-Robot-Control.hex'
p1079
sS'path'
p1080
S'caterina-Arduino_Robot'
p1081
sS'unlock_bits'
p1082
S'0x3F'
p1083
ssS'upload'
p1084
(dp1085
S'protocol'
p1086
S'avr109'
p1087
sS'maximum_size'
p1088
S'28672'
p1089
sS'speed'
p1090
S'57600'
p1091
sS'disable_flushing'
p1092
S'true'
p1093
ssS'build'
p1094
(dp1095
S'core'
p1096
S'robot'
p1097
sS'f_cpu'
p1098
S'16000000L'
p1099
sS'vid'
p1100
S'0x2341'
p1101
sS'pid'
p1102
S'0x8038'
p1103
sS'variant'
p1104
S'robot_control'
p1105
sS'mcu'
p1106
S'atmega32u4'
p1107
ssS'name'
p1108
S'Arduino Robot Control'
p1109
saa(lp1110
S'robotMotor'
p1111
a(dp1112
S'bootloader'
p1113
(dp1114
S'extended_fuses'
p1115
S'0xcb'
p1116
sS'high_fuses'
p1117
S'0xd8'
p1118
sS'low_fuses'
p1119
S'0xff'
p1120
sS'lock_bits'
p1121
S'0x2F'
p1122
sS'file'
p1123
S'Caterina-Robot-Motor.hex'
p1124
sS'path'
p1125
S'caterina-Arduino_Robot'
p1126
sS'unlock_bits'
p1127
S'0x3F'
p1128
ssS'upload'
p1129
(dp1130
S'protocol'
p1131
S'avr109'
p1132
sS'maximum_size'
p1133
S'28672'
p1134
sS'speed'
p1135
S'57600'
p1136
sS'disable_flushing'
p1137
S'true'
p1138
ssS'build'
p1139
(dp1140
S'core'
p1141
S'robot'
p1142
sS'f_cpu'
p1143
S'16000000L'
p1144
sS'vid'
p1145
S'0x2341'
p1146
sS'pid'
p1147
S'0x8039'
p1148
sS'variant'
p1149
S'robot_motor'
p1150
sS'mcu'
p1151
S'atmega32u4'
p1152
ssS'name'
p1153
S'Arduino Robot Motor'
p1154
saatp1155
Rp1156
(dp1157
S'default'
p1158
S'uno'
p1159
sbtp1160
a(S'used_libs'
p1161
(lp1162
S'/Applications/Arduino.app/Contents/Resources/Java/hardware/arduino/cores/arduino'
p1163
atp1164
a(S'make'
p1165
S'/Applications/Arduino.app/Contents/Resources/Java/hardware/tools/avr/bin/make'
p1166
tp1167
a(S'build_dir'
p1168
S'.build/uno'
p1169
tp1170
a(S'cc'
p1171
S'/Applications/Arduino.app/Contents/Resources/Java/hardware/tools/avr/bin/avr-gcc'
p1172
tp1173
a(S'cflags'
p1174
g2
(g3
g4
(lp1175
tp1176
Rp1177
tp1178
a(S'cxxflags'
p1179
g2
(g3
g4
(lp1180
S'-fno-exceptions'
p1181
atp1182
Rp1183
tp1184
a(S'arduino_variants_dir'
p1185
S'/Applications/Arduino.app/Contents/Resources/Java/hardware/arduino/variants'
p1186
tp1187
a(S'stty'
p1188
S'/bin/stty'
p1189
tp1190
a(S'version.txt'
p1191
S'/Applications/Arduino.app/Contents/Resources/Java/lib/version.txt'
p1192
tp1193
a(S'arduino_core_dir'
p1194
g1163
tp1195
a(S'boards.txt'
p1196
S'/Applications/Arduino.app/Contents/Resources/Java/hardware/arduino/boards.txt'
p1197
tp1198
a(S'avrdude.conf'
p1199
S'/Applications/Arduino.app/Contents/Resources/Java/hardware/tools/avr/etc/avrdude.conf'
p1200
tp1201
a(S'deps'
p1202
g2
(g3
g4
(lp1203
S'.build/uno/src/dependencies.d'
p1204
aS'.build/uno/arduino/dependencies.d'
p1205
atp1206
Rp1207
tp1208
a.